EXPORTS
    _Z10fromStringIiET_RKSs @1
    _Z12stringToBoolRKSs @2
    _Z14trimWhiteSpaceRSs @3
    _Z18isInsideDelimetersRKSsicc @4
    _Z18removeOuterSymbolsRSscc @5
    _Z29removeOuterNonDigitCharactersRSs @6
    _Z5splitRKSsccc @7
    _ZN10FileParser10createFileERKSs @8
    _ZN10FileParser10replaceAllERSsRKSsS2_ @9
    _ZN10FileParser11setFilePathERKSs @10
    _ZN10FileParser11skipSectionERSt14basic_ifstreamIcSt11char_traitsIcEERKSs @11
    _ZN10FileParser12setAttributeERKSsS1_RKSt6vectorIS2_ISsSaISsEESaIS4_EEb @12
    _ZN10FileParser12setAttributeERKSsS1_RKSt6vectorIS2_IbSaIbEESaIS4_EEb @13
    _ZN10FileParser12setAttributeERKSsS1_RKSt6vectorISsSaISsEEb @14
    _ZN10FileParser12setAttributeERKSsS1_RKSt6vectorIbSaIbEEb @15
    _ZN10FileParser12setAttributeERKSsS1_S1_ @16
    _ZN10FileParser12setAttributeERKSsS1_b @17
    _ZN10FileParser13createSectionERKSs @18
    _ZN10FileParser13doesFileExistERKSs @19
    _ZN10FileParser13moveToSectionERSt14basic_ifstreamIcSt11char_traitsIcEERKSs @20
    _ZN10FileParser13removeSectionERKSs @21
    _ZN10FileParser13searchSectionERSt14basic_ifstreamIcSt11char_traitsIcEERKSsS6_b @22
    _ZN10FileParser14trimWhiteSpaceERKSs @23
    _ZN10FileParser15createAttributeERKSsS1_RKSt6vectorIS2_ISsSaISsEESaIS4_EEb @24
    _ZN10FileParser15createAttributeERKSsS1_RKSt6vectorIS2_IbSaIbEESaIS4_EEb @25
    _ZN10FileParser15createAttributeERKSsS1_RKSt6vectorISsSaISsEEb @26
    _ZN10FileParser15createAttributeERKSsS1_RKSt6vectorIbSaIbEEb @27
    _ZN10FileParser15createAttributeERKSsS1_S1_ @28
    _ZN10FileParser15createAttributeERKSsS1_b @29
    _ZN10FileParser15removeAttributeERKSsS1_ @30
    _ZN10FileParser16doesSectionExistERKSs @31
    _ZN10FileParser16writeLinesToFileERSt4listISsSaISsEE @32
    _ZN10FileParser17getAttributeAsIntERKSsS1_i @33
    _ZN10FileParser18buildAttributePathERKSsS1_ @34
    _ZN10FileParser18doesAttributeExistERKSs @35
    _ZN10FileParser18getAttributeAsBoolERKSsS1_b @36
    _ZN10FileParser18getAttributeAsCharERKSsS1_c @37
    _ZN10FileParser18isInsideDelimetersERKSsjcc @38
    _ZN10FileParser18isValidSectionPathESs @39
    _ZN10FileParser18parseAttributePathERKSsb @40
    _ZN10FileParser18removeOuterSymbolsERKSscc @41
    _ZN10FileParser19separateArrayValuesESsRSt6vectorISsSaISsEE @42
    _ZN10FileParser20getAttributeAsStringERKSsS1_Ss @43
    _ZN10FileParser20isValidAttributePathESs @44
    _ZN10FileParser20searchDefaultSectionERSt14basic_ifstreamIcSt11char_traitsIcEERKSsb @45
    _ZN10FileParser21getAttributeAsDecimalERKSsS1_d @46
    _ZN10FileParser23searchStringForEndBraceESs @47
    _ZN10FileParser31getSectionPathFromAttributePathERKSs @48
    _ZN10FileParser5splitERKSsccc @49
    _ZN10FileParser9loadArrayERKSsS1_RSt6vectorIS2_ISsSaISsEESaIS4_EE @50
    _ZN10FileParser9loadArrayERKSsS1_RSt6vectorIS2_IbSaIbEESaIS4_EE @51
    _ZN10FileParser9loadArrayERKSsS1_RSt6vectorISsSaISsEEjS4_ @52
    _ZN10FileParser9loadArrayERKSsS1_RSt6vectorIbSaIbEEjS4_ @53
    _ZN10FileParserC1ERKSsb @54
    _ZN10FileParserC1Ev @55
    _ZN10FileParserC2ERKSsb @56
    _ZN10FileParserC2Ev @57
    _ZN10FileParserD1Ev @58
    _ZN10FileParserD2Ev @59
    _ZN10Serializer12getNextValueERSsc @60
    _ZN10Serializer19addEscapeCharactersERSs @61
    _ZN10Serializer19escapableCharactersE @62 DATA
    _ZN10Serializer20removeAllEscapeCharsERSs @63
    _ZN10Serializer24moveToNextConversionCharERSsS0_ @64
    _ZN11PackedArrayIN3ocs6ObjectEE10createCopyEy @65
    _ZN11PackedArrayIN3ocs6ObjectEE5clearEv @66
    _ZN11PackedArrayIN3ocs6ObjectEE6removeEy @67
    _ZN16readentirestringrsERSt18basic_stringstreamIcSt11char_traitsIcESaIcEERSs @68
    _ZN3ocs10MessageHub11logMessagesERKSt13unordered_mapIySt6vectorISt10shared_ptrINS_11BaseMessageEESaIS5_EESt4hashIyESt8equal_toIyESaISt4pairIKyS7_EEERSo @69
    _ZN3ocs10MessageHub16clearMessageSlotERSt6vectorISt10shared_ptrINS_11BaseMessageEESaIS4_EE @70
    _ZN3ocs10MessageHub17logPostedMessagesERSo @71
    _ZN3ocs10MessageHub18logPrivateMessagesERKNS_11TransceiverERSo @72
    _ZN3ocs10MessageHub19clearPostedMessagesEv @73
    _ZN3ocs10MessageHub19getNewTransceiverIDEv @74
    _ZN3ocs10MessageHub20clearPrivateMessagesERKNS_11TransceiverE @75
    _ZN3ocs10MessageHub20transceiverIdCounterE @76 DATA
    _ZN3ocs11BaseMessage13familyCounterE @77 DATA
    _ZN3ocs11BaseMessage3logERSo @78
    _ZN3ocs11BaseMessageC1ERKNS_11TransceiverE @79
    _ZN3ocs11BaseMessageC2ERKNS_11TransceiverE @80
    _ZN3ocs11BaseMessageD0Ev @81
    _ZN3ocs11BaseMessageD1Ev @82
    _ZN3ocs11TransceiverC1Ev @83
    _ZN3ocs11TransceiverC2Ev @84
    _ZN3ocs13BaseComponent13familyCounterE @85 DATA
    _ZN3ocs13ObjectManager12createObjectERKSs @86
    _ZN3ocs13ObjectManager12createObjectEv @87
    _ZN3ocs13ObjectManager13destroyObjectEy @88
    _ZN3ocs13ObjectManager14versionCounterE @89 DATA
    _ZN3ocs13ObjectManager15serializeObjectEy @90
    _ZN3ocs13ObjectManager17availableVersionsE @91 DATA
    _ZN3ocs13ObjectManager17deSerializeObjectEyRSt6vectorISt4pairIySsESaIS3_EE @92
    _ZN3ocs13ObjectManager17destroyAllObjectsEv @93
    _ZN3ocs13ObjectManager18prototypeIDCounterE @94 DATA
    _ZN3ocs13ObjectManager33addComponentToPrototypeFromStringERKSsS2_S2_ @95
    _ZN3ocs13ObjectManagerC1Ev @96
    _ZN3ocs13ObjectManagerC2Ev @97
    _ZN3ocs13ObjectManagerD1Ev @98
    _ZN3ocs13ObjectManagerD2Ev @99
    _ZN3ocs13SystemManager14versionCounterE @100 DATA
    _ZN3ocs13SystemManager16updateAllSystemsEd @101
    _ZN3ocs13SystemManager17availableVersionsE @102 DATA
    _ZN3ocs13SystemManagerC1ERNS_13ObjectManagerERNS_10MessageHubE @103
    _ZN3ocs13SystemManagerC2ERNS_13ObjectManagerERNS_10MessageHubE @104
    _ZN3ocs13SystemManagerD1Ev @105
    _ZN3ocs13SystemManagerD2Ev @106
    _ZN3ocs21ObjectPrototypeLoader16loadPrototypeSetERNS_13ObjectManagerERKSsS4_S4_ @107
    _ZN3ocs21ObjectPrototypeLoader18doesPrototypeExistERKNS_13ObjectManagerERKSs @108
    _ZN3ocs21ObjectPrototypeLoader19loadObjectPrototypeERNS_13ObjectManagerERKSsS4_S4_ @109
    _ZN3ocs5State3runEv @110
    _ZN3ocs5State4stopEv @111
    _ZN3ocs5StateC1Ev @112
    _ZN3ocs5StateC2Ev @113
    _ZN3ocs5StateD0Ev @114
    _ZN3ocs5StateD1Ev @115
    _ZN3ocs5StateD2Ev @116
    _ZN3ocs6Object21deSerializeComponentsESt6vectorISt4pairIySsESaIS3_EE @117
    _ZN3ocs6ObjectD1Ev @118
    _ZN5Timer14getElapsedTimeEv @119
    _ZN5Timer7restartEv @120
    _ZN5TimerC1Ev @121
    _ZN5TimerC2Ev @122
    _ZN9AttributeC1Ev @123
    _ZN9AttributeD1Ev @124
    _ZN9TimeStamp12getTimeStampERKSs @125
    _ZNK10FileParser11getFilePathEv @126
    _ZNK11PackedArrayIN3ocs6ObjectEE4sizeEv @127
    _ZNK11PackedArrayIN3ocs6ObjectEE7isValidEy @128
    _ZNK3ocs13ObjectManager15getTotalObjectsEv @129
    _ZNK3ocs13ObjectManager18doesPrototypeExistERKSs @130
    _ZNK3ocs13SystemManager10getVersionEv @131
    _ZNK3ocs13SystemManager15getTotalSystemsEv @132
    _ZNK3ocs6Object19serializeComponentsEv @133
    _ZNKSt10_HashtableISsSt4pairIKSsN3ocs6ObjectEESaIS4_ENSt8__detail10_Select1stESt8equal_toISsESt4hashISsENS6_18_Mod_range_hashingENS6_20_Default_ranged_hashENS6_20_Prime_rehash_policyENS6_17_Hashtable_traitsILb1ELb0ELb1EEEE19_M_find_before_nodeEyRS1_y @134
    _ZNKSt10_HashtableISsSt4pairIKSsN3ocs6ObjectEESaIS4_ENSt8__detail10_Select1stESt8equal_toISsESt4hashISsENS6_18_Mod_range_hashingENS6_20_Default_ranged_hashENS6_20_Prime_rehash_policyENS6_17_Hashtable_traitsILb1ELb0ELb1EEEE4findERS1_ @135
    _ZNKSt10_HashtableISsSt4pairIKSsyESaIS2_ENSt8__detail10_Select1stESt8equal_toISsESt4hashISsENS4_18_Mod_range_hashingENS4_20_Default_ranged_hashENS4_20_Prime_rehash_policyENS4_17_Hashtable_traitsILb1ELb0ELb1EEEE19_M_find_before_nodeEyRS1_y @136
    _ZNSt10_HashtableISsSt4pairIKSsN3ocs6ObjectEESaIS4_ENSt8__detail10_Select1stESt8equal_toISsESt4hashISsENS6_18_Mod_range_hashingENS6_20_Default_ranged_hashENS6_20_Prime_rehash_policyENS6_17_Hashtable_traitsILb1ELb0ELb1EEEE16_M_allocate_nodeIIRKSt21piecewise_construct_tSt5tupleIIRS1_EESM_IIEEEEEPNS6_10_Hash_nodeIS4_Lb1EEEDpOT_ @137
    _ZNSt10_HashtableISsSt4pairIKSsN3ocs6ObjectEESaIS4_ENSt8__detail10_Select1stESt8equal_toISsESt4hashISsENS6_18_Mod_range_hashingENS6_20_Default_ranged_hashENS6_20_Prime_rehash_policyENS6_17_Hashtable_traitsILb1ELb0ELb1EEEE21_M_insert_unique_nodeEyyPNS6_10_Hash_nodeIS4_Lb1EEE @138
    _ZNSt10_HashtableISsSt4pairIKSsN3ocs6ObjectEESaIS4_ENSt8__detail10_Select1stESt8equal_toISsESt4hashISsENS6_18_Mod_range_hashingENS6_20_Default_ranged_hashENS6_20_Prime_rehash_policyENS6_17_Hashtable_traitsILb1ELb0ELb1EEEE5clearEv @139
    _ZNSt10_HashtableISsSt4pairIKSsyESaIS2_ENSt8__detail10_Select1stESt8equal_toISsESt4hashISsENS4_18_Mod_range_hashingENS4_20_Default_ranged_hashENS4_20_Prime_rehash_policyENS4_17_Hashtable_traitsILb1ELb0ELb1EEEE21_M_insert_unique_nodeEyyPNS4_10_Hash_nodeIS2_Lb1EEE @140
    _ZNSt10_HashtableIySt4pairIKyP18BaseComponentArrayESaIS4_ENSt8__detail10_Select1stESt8equal_toIyESt4hashIyENS6_18_Mod_range_hashingENS6_20_Default_ranged_hashENS6_20_Prime_rehash_policyENS6_17_Hashtable_traitsILb0ELb0ELb1EEEE16_M_allocate_nodeIIRKS4_EEEPNS6_10_Hash_nodeIS4_Lb0EEEDpOT_ @141
    _ZNSt10_HashtableIySt4pairIKyP18BaseComponentArrayESaIS4_ENSt8__detail10_Select1stESt8equal_toIyESt4hashIyENS6_18_Mod_range_hashingENS6_20_Default_ranged_hashENS6_20_Prime_rehash_policyENS6_17_Hashtable_traitsILb0ELb0ELb1EEEE21_M_insert_unique_nodeEyyPNS6_10_Hash_nodeIS4_Lb0EEE @142
    _ZNSt10_HashtableIySt4pairIKyP18BaseComponentArrayESaIS4_ENSt8__detail10_Select1stESt8equal_toIyESt4hashIyENS6_18_Mod_range_hashingENS6_20_Default_ranged_hashENS6_20_Prime_rehash_policyENS6_17_Hashtable_traitsILb0ELb0ELb1EEEE5clearEv @143
    _ZNSt10_HashtableIySt4pairIKyP18BaseComponentArrayESaIS4_ENSt8__detail10_Select1stESt8equal_toIyESt4hashIyENS6_18_Mod_range_hashingENS6_20_Default_ranged_hashENS6_20_Prime_rehash_policyENS6_17_Hashtable_traitsILb0ELb0ELb1EEEEC1ERKSH_ @144
    _ZNSt10_HashtableIySt4pairIKySt13unordered_mapIySt6vectorISt10shared_ptrIN3ocs11BaseMessageEESaIS7_EESt4hashIyESt8equal_toIyESaIS0_IS1_S9_EEEESaISH_ENSt8__detail10_Select1stESD_SB_NSJ_18_Mod_range_hashingENSJ_20_Default_ranged_hashENSJ_20_Prime_rehash_policyENSJ_17_Hashtable_traitsILb0ELb0ELb1EEEE21_M_insert_unique_nodeEyyPNSJ_10_Hash_nodeISH_Lb0EEE @145
    _ZNSt10_HashtableIySt4pairIKySt13unordered_mapIySt6vectorISt10shared_ptrIN3ocs11BaseMessageEESaIS7_EESt4hashIyESt8equal_toIyESaIS0_IS1_S9_EEEESaISH_ENSt8__detail10_Select1stESD_SB_NSJ_18_Mod_range_hashingENSJ_20_Default_ranged_hashENSJ_20_Prime_rehash_policyENSJ_17_Hashtable_traitsILb0ELb0ELb1EEEE5clearEv @146
    _ZNSt10_HashtableIySt4pairIKySt6vectorISt10shared_ptrIN3ocs11BaseMessageEESaIS6_EEESaIS9_ENSt8__detail10_Select1stESt8equal_toIyESt4hashIyENSB_18_Mod_range_hashingENSB_20_Default_ranged_hashENSB_20_Prime_rehash_policyENSB_17_Hashtable_traitsILb0ELb0ELb1EEEE5clearEv @147
    _ZNSt10_HashtableIySt4pairIKyyESaIS2_ENSt8__detail10_Select1stESt8equal_toIyESt4hashIyENS4_18_Mod_range_hashingENS4_20_Default_ranged_hashENS4_20_Prime_rehash_policyENS4_17_Hashtable_traitsILb0ELb0ELb1EEEE16_M_allocate_nodeIIRKS2_EEEPNS4_10_Hash_nodeIS2_Lb0EEEDpOT_ @148
    _ZNSt10_HashtableIySt4pairIKyyESaIS2_ENSt8__detail10_Select1stESt8equal_toIyESt4hashIyENS4_18_Mod_range_hashingENS4_20_Default_ranged_hashENS4_20_Prime_rehash_policyENS4_17_Hashtable_traitsILb0ELb0ELb1EEEE21_M_insert_unique_nodeEyyPNS4_10_Hash_nodeIS2_Lb0EEE @149
    _ZNSt10_HashtableIySt4pairIKyyESaIS2_ENSt8__detail10_Select1stESt8equal_toIyESt4hashIyENS4_18_Mod_range_hashingENS4_20_Default_ranged_hashENS4_20_Prime_rehash_policyENS4_17_Hashtable_traitsILb0ELb0ELb1EEEE5clearEv @150
    _ZNSt10_HashtableIySt4pairIKyyESaIS2_ENSt8__detail10_Select1stESt8equal_toIyESt4hashIyENS4_18_Mod_range_hashingENS4_20_Default_ranged_hashENS4_20_Prime_rehash_policyENS4_17_Hashtable_traitsILb0ELb0ELb1EEEEC1ERKSF_ @151
    _ZNSt10_List_baseISsSaISsEE8_M_clearEv @152
    _ZNSt10_List_baseISt10shared_ptrIN3ocs6SystemEESaIS3_EE8_M_clearEv @153
    _ZNSt11_Deque_baseIySaIyEE17_M_initialize_mapEy @154
    _ZNSt11_Deque_baseIySaIyEED2Ev @155
    _ZNSt15basic_stringbufIcSt11char_traitsIcESaIcEED1Ev @156
    _ZNSt4listISsSaISsEE14_M_create_nodeIIRKSsEEEPSt10_List_nodeISsEDpOT_ @157
    _ZNSt5dequeIySaIyEE15_M_pop_back_auxEv @158
    _ZNSt5dequeIySaIyEE16_M_push_back_auxIIRKyEEEvDpOT_ @159
    _ZNSt6vectorIN3ocs6ObjectESaIS1_EE19_M_emplace_back_auxIIRKS1_EEEvDpOT_ @160
    _ZNSt6vectorIS_ISsSaISsEESaIS1_EE17_M_default_appendEy @161
    _ZNSt6vectorIS_ISsSaISsEESaIS1_EE6resizeEy @162
    _ZNSt6vectorIS_ISsSaISsEESaIS1_EED1Ev @163
    _ZNSt6vectorIS_IbSaIbEESaIS1_EE17_M_default_appendEy @164
    _ZNSt6vectorISsSaISsEE12emplace_backIISsEEEvDpOT_ @165
    _ZNSt6vectorISsSaISsEE19_M_emplace_back_auxIIRKSsEEEvDpOT_ @166
    _ZNSt6vectorISsSaISsEE19_M_emplace_back_auxIISsEEEvDpOT_ @167
    _ZNSt6vectorISsSaISsEED1Ev @168
    _ZNSt6vectorISsSaISsEEaSERKS1_ @169
    _ZNSt6vectorIbSaIbEE13_M_insert_auxESt13_Bit_iteratorb @170
    _ZNSt6vectorIbSaIbEE9push_backEb @171
    _ZNSt6vectorIySaIyEE19_M_emplace_back_auxIIRKyEEEvDpOT_ @172
    _ZNSt8_Rb_treeISsSsSt9_IdentityISsESt4lessISsESaISsEE24_M_get_insert_unique_posERKSs @173
    _ZNSt8_Rb_treeISsSsSt9_IdentityISsESt4lessISsESaISsEE8_M_eraseEPSt13_Rb_tree_nodeISsE @174
    _ZNSt8_Rb_treeIyySt9_IdentityIyESt4lessIyESaIyEE8_M_eraseEPSt13_Rb_tree_nodeIyE @175
    _ZNSt8__detail9_Map_baseISsSt4pairIKSsN3ocs6ObjectEESaIS5_ENS_10_Select1stESt8equal_toISsESt4hashISsENS_18_Mod_range_hashingENS_20_Default_ranged_hashENS_20_Prime_rehash_policyENS_17_Hashtable_traitsILb1ELb0ELb1EEELb1EEixERS2_ @176
    _ZNSt8__detail9_Map_baseIySt4pairIKyP18BaseComponentArrayESaIS5_ENS_10_Select1stESt8equal_toIyESt4hashIyENS_18_Mod_range_hashingENS_20_Default_ranged_hashENS_20_Prime_rehash_policyENS_17_Hashtable_traitsILb0ELb0ELb1EEELb1EEixERS2_ @177
    _ZNSt8__detail9_Map_baseIySt4pairIKySt13unordered_mapIySt6vectorISt10shared_ptrIN3ocs11BaseMessageEESaIS8_EESt4hashIyESt8equal_toIyESaIS1_IS2_SA_EEEESaISI_ENS_10_Select1stESE_SC_NS_18_Mod_range_hashingENS_20_Default_ranged_hashENS_20_Prime_rehash_policyENS_17_Hashtable_traitsILb0ELb0ELb1EEELb1EEixEOy @178
    _ZNSt8__detail9_Map_baseIySt4pairIKyyESaIS3_ENS_10_Select1stESt8equal_toIyESt4hashIyENS_18_Mod_range_hashingENS_20_Default_ranged_hashENS_20_Prime_rehash_policyENS_17_Hashtable_traitsILb0ELb0ELb1EEELb1EEixERS2_ @179
    _ZStplIcSt11char_traitsIcESaIcEESbIT_T0_T1_EOS6_PKS3_ @180
    _ZStplIcSt11char_traitsIcESaIcEESbIT_T0_T1_EPKS3_OS6_ @181
    _ZStplIcSt11char_traitsIcESaIcEESbIT_T0_T1_EPKS3_RKS6_ @182
    _ZTI11PackedArrayIN3ocs6ObjectEE @183 DATA
    _ZTI15BasePackedArray @184 DATA
    _ZTIN3ocs11BaseMessageE @185 DATA
    _ZTIN3ocs11TransceiverE @186 DATA
    _ZTIN3ocs5StateE @187 DATA
    _ZTISt11logic_error @188 DATA
    _ZTISt12out_of_range @189 DATA
    _ZTISt16invalid_argument @190 DATA
    _ZTISt9exception @191 DATA
    _ZTS11PackedArrayIN3ocs6ObjectEE @192 DATA
    _ZTS15BasePackedArray @193 DATA
    _ZTSN3ocs11BaseMessageE @194 DATA
    _ZTSN3ocs11TransceiverE @195 DATA
    _ZTSN3ocs5StateE @196 DATA
    _ZTSSt11logic_error @197 DATA
    _ZTSSt12out_of_range @198 DATA
    _ZTSSt16invalid_argument @199 DATA
    _ZTSSt9exception @200 DATA
    _ZTV11PackedArrayIN3ocs6ObjectEE @201 DATA
    _ZTV15BasePackedArray @202 DATA
    _ZTVN3ocs11BaseMessageE @203 DATA
    _ZTVN3ocs5StateE @204 DATA
    _ZlsRSt18basic_stringstreamIcSt11char_traitsIcESaIcEERKSs @205
    _ZrsRSt18basic_stringstreamIcSt11char_traitsIcESaIcEERSs @206
