EXPORTS
    _ZN10FileParser10createFileERKSs @1
    _ZN10FileParser10fromStringIdEET_RKSs @2
    _ZN10FileParser10fromStringIiEET_RKSs @3
    _ZN10FileParser10replaceAllERSsRKSsS2_ @4
    _ZN10FileParser11setFilePathERKSs @5
    _ZN10FileParser11skipSectionERSt14basic_ifstreamIcSt11char_traitsIcEERKSs @6
    _ZN10FileParser12setAttributeERKSsS1_RKSt6vectorIS2_ISsSaISsEESaIS4_EEb @7
    _ZN10FileParser12setAttributeERKSsS1_RKSt6vectorIS2_IbSaIbEESaIS4_EEb @8
    _ZN10FileParser12setAttributeERKSsS1_RKSt6vectorISsSaISsEEb @9
    _ZN10FileParser12setAttributeERKSsS1_RKSt6vectorIbSaIbEEb @10
    _ZN10FileParser12setAttributeERKSsS1_S1_ @11
    _ZN10FileParser12setAttributeERKSsS1_b @12
    _ZN10FileParser13createSectionERKSs @13
    _ZN10FileParser13doesFileExistERKSs @14
    _ZN10FileParser13moveToSectionERSt14basic_ifstreamIcSt11char_traitsIcEERKSs @15
    _ZN10FileParser13removeSectionERKSs @16
    _ZN10FileParser13searchSectionERSt14basic_ifstreamIcSt11char_traitsIcEERKSsS6_b @17
    _ZN10FileParser14trimWhiteSpaceERKSs @18
    _ZN10FileParser15createAttributeERKSsS1_RKSt6vectorIS2_ISsSaISsEESaIS4_EEb @19
    _ZN10FileParser15createAttributeERKSsS1_RKSt6vectorIS2_IbSaIbEESaIS4_EEb @20
    _ZN10FileParser15createAttributeERKSsS1_RKSt6vectorISsSaISsEEb @21
    _ZN10FileParser15createAttributeERKSsS1_RKSt6vectorIbSaIbEEb @22
    _ZN10FileParser15createAttributeERKSsS1_S1_ @23
    _ZN10FileParser15createAttributeERKSsS1_b @24
    _ZN10FileParser15removeAttributeERKSsS1_ @25
    _ZN10FileParser16doesSectionExistERKSs @26
    _ZN10FileParser16writeLinesToFileERSt4listISsSaISsEE @27
    _ZN10FileParser17getAttributeAsIntERKSsS1_i @28
    _ZN10FileParser18buildAttributePathERKSsS1_ @29
    _ZN10FileParser18doesAttributeExistERKSs @30
    _ZN10FileParser18getAttributeAsBoolERKSsS1_b @31
    _ZN10FileParser18getAttributeAsCharERKSsS1_c @32
    _ZN10FileParser18isInsideDelimetersERKSsjcc @33
    _ZN10FileParser18isValidSectionPathESs @34
    _ZN10FileParser18parseAttributePathERKSsb @35
    _ZN10FileParser18removeOuterSymbolsERKSscc @36
    _ZN10FileParser19separateArrayValuesESsRSt6vectorISsSaISsEE @37
    _ZN10FileParser20getAttributeAsStringERKSsS1_Ss @38
    _ZN10FileParser20isValidAttributePathESs @39
    _ZN10FileParser20searchDefaultSectionERSt14basic_ifstreamIcSt11char_traitsIcEERKSsb @40
    _ZN10FileParser21getAttributeAsDecimalERKSsS1_d @41
    _ZN10FileParser23searchStringForEndBraceESs @42
    _ZN10FileParser31getSectionPathFromAttributePathERKSs @43
    _ZN10FileParser5splitERKSsccc @44
    _ZN10FileParser9loadArrayERKSsS1_RSt6vectorIS2_ISsSaISsEESaIS4_EE @45
    _ZN10FileParser9loadArrayERKSsS1_RSt6vectorIS2_IbSaIbEESaIS4_EE @46
    _ZN10FileParser9loadArrayERKSsS1_RSt6vectorISsSaISsEEjS4_ @47
    _ZN10FileParser9loadArrayERKSsS1_RSt6vectorIbSaIbEEjS4_ @48
    _ZN10FileParserC1ERKSsb @49
    _ZN10FileParserC1Ev @50
    _ZN10FileParserC2ERKSsb @51
    _ZN10FileParserC2Ev @52
    _ZN10FileParserD1Ev @53
    _ZN10FileParserD2Ev @54
    _ZN10Serializer12getNextValueERSsc @55
    _ZN10Serializer19addEscapeCharactersERSs @56
    _ZN10Serializer19escapableCharactersE @57 DATA
    _ZN10Serializer20removeAllEscapeCharsERSs @58
    _ZN10Serializer24moveToNextConversionCharERSsS0_ @59
    _ZN11NonCopyableC2Ev @60
    _ZN11PackedArrayIN3ocs6ObjectEE10createCopyEy @61
    _ZN11PackedArrayIN3ocs6ObjectEE12emplace_itemIIEEEyDpOT_ @62
    _ZN11PackedArrayIN3ocs6ObjectEE3endEv @63
    _ZN11PackedArrayIN3ocs6ObjectEE5beginEv @64
    _ZN11PackedArrayIN3ocs6ObjectEE5clearEv @65
    _ZN11PackedArrayIN3ocs6ObjectEE6removeEy @66
    _ZN11PackedArrayIN3ocs6ObjectEE8add_itemERKS1_ @67
    _ZN11PackedArrayIN3ocs6ObjectEEC1Ev @68
    _ZN11PackedArrayIN3ocs6ObjectEED1Ev @69
    _ZN11PackedArrayIN3ocs6ObjectEEixEy @70
    _ZN15BasePackedArrayC2Ev @71
    _ZN3ocs10MessageHub11logMessagesERKSt13unordered_mapIySt6vectorISt10shared_ptrINS_11BaseMessageEESaIS5_EESt4hashIyESt8equal_toIyESaISt4pairIKyS7_EEERSo @72
    _ZN3ocs10MessageHub16clearMessageSlotERSt6vectorISt10shared_ptrINS_11BaseMessageEESaIS4_EE @73
    _ZN3ocs10MessageHub17logPostedMessagesERSo @74
    _ZN3ocs10MessageHub18logPrivateMessagesERKNS_11TransceiverERSo @75
    _ZN3ocs10MessageHub19clearPostedMessagesEv @76
    _ZN3ocs10MessageHub19getNewTransceiverIDEv @77
    _ZN3ocs10MessageHub20clearPrivateMessagesERKNS_11TransceiverE @78
    _ZN3ocs10MessageHub20transceiverIdCounterE @79 DATA
    _ZN3ocs10MessageHubC1Ev @80
    _ZN3ocs10MessageHubD1Ev @81
    _ZN3ocs11BaseMessage13familyCounterE @82 DATA
    _ZN3ocs11BaseMessage3logERSo @83
    _ZN3ocs11BaseMessageC1ERKNS_11TransceiverE @84
    _ZN3ocs11BaseMessageC2ERKNS_11TransceiverE @85
    _ZN3ocs11BaseMessageD0Ev @86
    _ZN3ocs11BaseMessageD1Ev @87
    _ZN3ocs11TransceiverC1Ev @88
    _ZN3ocs11TransceiverC2Ev @89
    _ZN3ocs13BaseComponent13familyCounterE @90 DATA
    _ZN3ocs13ObjectManager12createObjectERKSs @91
    _ZN3ocs13ObjectManager12createObjectEv @92
    _ZN3ocs13ObjectManager13destroyObjectEy @93
    _ZN3ocs13ObjectManager14versionCounterE @94 DATA
    _ZN3ocs13ObjectManager15serializeObjectEy @95
    _ZN3ocs13ObjectManager17availableVersionsE @96 DATA
    _ZN3ocs13ObjectManager17deSerializeObjectEyRSt6vectorISt4pairIySsESaIS3_EE @97
    _ZN3ocs13ObjectManager17destroyAllObjectsEv @98
    _ZN3ocs13ObjectManager18prototypeIDCounterE @99 DATA
    _ZN3ocs13ObjectManager33addComponentToPrototypeFromStringERKSsS2_S2_ @100
    _ZN3ocs13ObjectManagerC1Ev @101
    _ZN3ocs13ObjectManagerC2Ev @102
    _ZN3ocs13ObjectManagerD1Ev @103
    _ZN3ocs13ObjectManagerD2Ev @104
    _ZN3ocs13SystemManager14versionCounterE @105 DATA
    _ZN3ocs13SystemManager16updateAllSystemsEd @106
    _ZN3ocs13SystemManager17availableVersionsE @107 DATA
    _ZN3ocs13SystemManagerC1ERNS_13ObjectManagerERNS_10MessageHubE @108
    _ZN3ocs13SystemManagerC2ERNS_13ObjectManagerERNS_10MessageHubE @109
    _ZN3ocs13SystemManagerD1Ev @110
    _ZN3ocs13SystemManagerD2Ev @111
    _ZN3ocs21ObjectPrototypeLoader16loadPrototypeSetERNS_13ObjectManagerERKSsS4_S4_ @112
    _ZN3ocs21ObjectPrototypeLoader18doesPrototypeExistERKNS_13ObjectManagerERKSs @113
    _ZN3ocs21ObjectPrototypeLoader19loadObjectPrototypeERNS_13ObjectManagerERKSsS4_S4_ @114
    _ZN3ocs5State3runEv @115
    _ZN3ocs5State4stopEv @116
    _ZN3ocs5StateC1Ev @117
    _ZN3ocs5StateC2Ev @118
    _ZN3ocs5StateD0Ev @119
    _ZN3ocs5StateD1Ev @120
    _ZN3ocs5StateD2Ev @121
    _ZN3ocs6Object21deSerializeComponentsESt6vectorISt4pairIySsESaIS3_EE @122
    _ZN3ocs6ObjectC1ERKS0_ @123
    _ZN3ocs6ObjectC1Ev @124
    _ZN3ocs6ObjectD1Ev @125
    _ZN3ocs6ObjectaSERKS0_ @126
    _ZN5Timer14getElapsedTimeEv @127
    _ZN5Timer7restartEv @128
    _ZN5TimerC1Ev @129
    _ZN5TimerC2Ev @130
    _ZN9AttributeC1Ev @131
    _ZN9AttributeD1Ev @132
    _ZN9AttributeaSEOS_ @133
    _ZN9TimeStamp12getTimeStampERKSs @134
    _ZN9__gnu_cxx13new_allocatorIN3ocs6ObjectEE10deallocateEPS2_y @135
    _ZN9__gnu_cxx13new_allocatorIN3ocs6ObjectEE7destroyIS2_EEvPT_ @136
    _ZN9__gnu_cxx13new_allocatorIN3ocs6ObjectEE8allocateEyPKv @137
    _ZN9__gnu_cxx13new_allocatorIN3ocs6ObjectEE9constructIS2_IRKS2_EEEvPT_DpOT0_ @138
    _ZN9__gnu_cxx13new_allocatorIN3ocs6ObjectEEC2Ev @139
    _ZN9__gnu_cxx13new_allocatorIN3ocs6ObjectEED2Ev @140
    _ZN9__gnu_cxx13new_allocatorINSt8__detail10_Hash_nodeISt4pairIKSsN3ocs6ObjectEELb1EEEE10deallocateEPS8_y @141
    _ZN9__gnu_cxx13new_allocatorINSt8__detail10_Hash_nodeISt4pairIKSsN3ocs6ObjectEELb1EEEE7destroyIS8_EEvPT_ @142
    _ZN9__gnu_cxx13new_allocatorINSt8__detail10_Hash_nodeISt4pairIKSsN3ocs6ObjectEELb1EEEE8allocateEyPKv @143
    _ZN9__gnu_cxx13new_allocatorINSt8__detail10_Hash_nodeISt4pairIKSsN3ocs6ObjectEELb1EEEE9constructIS8_IRKSt21piecewise_construct_tSt5tupleIIRS4_EESE_IIEEEEEvPT_DpOT0_ @144
    _ZN9__gnu_cxx13new_allocatorINSt8__detail10_Hash_nodeISt4pairIKSsN3ocs6ObjectEELb1EEEEC2Ev @145
    _ZN9__gnu_cxx13new_allocatorINSt8__detail10_Hash_nodeISt4pairIKSsN3ocs6ObjectEELb1EEEED2Ev @146
    _ZN9__gnu_cxx13new_allocatorINSt8__detail10_Hash_nodeISt4pairIKSsyELb1EEEE10deallocateEPS6_y @147
    _ZN9__gnu_cxx13new_allocatorINSt8__detail10_Hash_nodeISt4pairIKSsyELb1EEEE7destroyIS6_EEvPT_ @148
    _ZN9__gnu_cxx13new_allocatorINSt8__detail10_Hash_nodeISt4pairIKSsyELb1EEEE8allocateEyPKv @149
    _ZN9__gnu_cxx13new_allocatorINSt8__detail10_Hash_nodeISt4pairIKSsyELb1EEEE9constructIS6_IRKSt21piecewise_construct_tSt5tupleIIRS4_EESC_IIEEEEEvPT_DpOT0_ @150
    _ZN9__gnu_cxx13new_allocatorINSt8__detail10_Hash_nodeISt4pairIKSsyELb1EEEEC2Ev @151
    _ZN9__gnu_cxx13new_allocatorINSt8__detail10_Hash_nodeISt4pairIKSsyELb1EEEED2Ev @152
    _ZN9__gnu_cxx13new_allocatorINSt8__detail10_Hash_nodeISt4pairIKyP18BaseComponentArrayELb0EEEE10deallocateEPS8_y @153
    _ZN9__gnu_cxx13new_allocatorINSt8__detail10_Hash_nodeISt4pairIKyP18BaseComponentArrayELb0EEEE7destroyIS8_EEvPT_ @154
    _ZN9__gnu_cxx13new_allocatorINSt8__detail10_Hash_nodeISt4pairIKyP18BaseComponentArrayELb0EEEE8allocateEyPKv @155
    _ZN9__gnu_cxx13new_allocatorINSt8__detail10_Hash_nodeISt4pairIKyP18BaseComponentArrayELb0EEEE9constructIS8_IRKS7_EEEvPT_DpOT0_ @156
    _ZN9__gnu_cxx13new_allocatorINSt8__detail10_Hash_nodeISt4pairIKyP18BaseComponentArrayELb0EEEE9constructIS8_IRKSt21piecewise_construct_tSt5tupleIIRS4_EESE_IIEEEEEvPT_DpOT0_ @157
    _ZN9__gnu_cxx13new_allocatorINSt8__detail10_Hash_nodeISt4pairIKyP18BaseComponentArrayELb0EEEEC2ERKS9_ @158
    _ZN9__gnu_cxx13new_allocatorINSt8__detail10_Hash_nodeISt4pairIKyP18BaseComponentArrayELb0EEEEC2Ev @159
    _ZN9__gnu_cxx13new_allocatorINSt8__detail10_Hash_nodeISt4pairIKyP18BaseComponentArrayELb0EEEED2Ev @160
    _ZN9__gnu_cxx13new_allocatorINSt8__detail10_Hash_nodeISt4pairIKySt13unordered_mapIySt6vectorISt10shared_ptrIN3ocs11BaseMessageEESaISA_EESt4hashIyESt8equal_toIyESaIS3_IS4_SC_EEEELb0EEEE10deallocateEPSL_y @161
    _ZN9__gnu_cxx13new_allocatorINSt8__detail10_Hash_nodeISt4pairIKySt13unordered_mapIySt6vectorISt10shared_ptrIN3ocs11BaseMessageEESaISA_EESt4hashIyESt8equal_toIyESaIS3_IS4_SC_EEEELb0EEEE7destroyISL_EEvPT_ @162
    _ZN9__gnu_cxx13new_allocatorINSt8__detail10_Hash_nodeISt4pairIKySt13unordered_mapIySt6vectorISt10shared_ptrIN3ocs11BaseMessageEESaISA_EESt4hashIyESt8equal_toIyESaIS3_IS4_SC_EEEELb0EEEE8allocateEyPKv @163
    _ZN9__gnu_cxx13new_allocatorINSt8__detail10_Hash_nodeISt4pairIKySt13unordered_mapIySt6vectorISt10shared_ptrIN3ocs11BaseMessageEESaISA_EESt4hashIyESt8equal_toIyESaIS3_IS4_SC_EEEELb0EEEE9constructISL_IRKSt21piecewise_construct_tSt5tupleIIOyEESR_IIEEEEEvPT_DpOT0_ @164
    _ZN9__gnu_cxx13new_allocatorINSt8__detail10_Hash_nodeISt4pairIKySt13unordered_mapIySt6vectorISt10shared_ptrIN3ocs11BaseMessageEESaISA_EESt4hashIyESt8equal_toIyESaIS3_IS4_SC_EEEELb0EEEE9constructISL_IRKSt21piecewise_construct_tSt5tupleIIRS4_EESR_IIEEEEEvPT_DpOT0_ @165
    _ZN9__gnu_cxx13new_allocatorINSt8__detail10_Hash_nodeISt4pairIKySt13unordered_mapIySt6vectorISt10shared_ptrIN3ocs11BaseMessageEESaISA_EESt4hashIyESt8equal_toIyESaIS3_IS4_SC_EEEELb0EEEEC2Ev @166
    _ZN9__gnu_cxx13new_allocatorINSt8__detail10_Hash_nodeISt4pairIKySt13unordered_mapIySt6vectorISt10shared_ptrIN3ocs11BaseMessageEESaISA_EESt4hashIyESt8equal_toIyESaIS3_IS4_SC_EEEELb0EEEED2Ev @167
    _ZN9__gnu_cxx13new_allocatorINSt8__detail10_Hash_nodeISt4pairIKySt6vectorISt10shared_ptrIN3ocs11BaseMessageEESaIS9_EEELb0EEEE10deallocateEPSD_y @168
    _ZN9__gnu_cxx13new_allocatorINSt8__detail10_Hash_nodeISt4pairIKySt6vectorISt10shared_ptrIN3ocs11BaseMessageEESaIS9_EEELb0EEEE7destroyISD_EEvPT_ @169
    _ZN9__gnu_cxx13new_allocatorINSt8__detail10_Hash_nodeISt4pairIKySt6vectorISt10shared_ptrIN3ocs11BaseMessageEESaIS9_EEELb0EEEEC2Ev @170
    _ZN9__gnu_cxx13new_allocatorINSt8__detail10_Hash_nodeISt4pairIKySt6vectorISt10shared_ptrIN3ocs11BaseMessageEESaIS9_EEELb0EEEED2Ev @171
    _ZN9__gnu_cxx13new_allocatorINSt8__detail10_Hash_nodeISt4pairIKyyELb0EEEE10deallocateEPS6_y @172
    _ZN9__gnu_cxx13new_allocatorINSt8__detail10_Hash_nodeISt4pairIKyyELb0EEEE7destroyIS6_EEvPT_ @173
    _ZN9__gnu_cxx13new_allocatorINSt8__detail10_Hash_nodeISt4pairIKyyELb0EEEE8allocateEyPKv @174
    _ZN9__gnu_cxx13new_allocatorINSt8__detail10_Hash_nodeISt4pairIKyyELb0EEEE9constructIS6_IRKS5_EEEvPT_DpOT0_ @175
    _ZN9__gnu_cxx13new_allocatorINSt8__detail10_Hash_nodeISt4pairIKyyELb0EEEE9constructIS6_IRKSt21piecewise_construct_tSt5tupleIIRS4_EESC_IIEEEEEvPT_DpOT0_ @176
    _ZN9__gnu_cxx13new_allocatorINSt8__detail10_Hash_nodeISt4pairIKyyELb0EEEEC2ERKS7_ @177
    _ZN9__gnu_cxx13new_allocatorINSt8__detail10_Hash_nodeISt4pairIKyyELb0EEEEC2Ev @178
    _ZN9__gnu_cxx13new_allocatorINSt8__detail10_Hash_nodeISt4pairIKyyELb0EEEED2Ev @179
    _ZN9__gnu_cxx13new_allocatorIPNSt8__detail15_Hash_node_baseEE10deallocateEPS3_y @180
    _ZN9__gnu_cxx13new_allocatorIPNSt8__detail15_Hash_node_baseEE8allocateEyPKv @181
    _ZN9__gnu_cxx13new_allocatorIPNSt8__detail15_Hash_node_baseEEC2Ev @182
    _ZN9__gnu_cxx13new_allocatorIPNSt8__detail15_Hash_node_baseEED2Ev @183
    _ZN9__gnu_cxx13new_allocatorIPyE10deallocateEPS1_y @184
    _ZN9__gnu_cxx13new_allocatorIPyE8allocateEyPKv @185
    _ZN9__gnu_cxx13new_allocatorIPyEC2Ev @186
    _ZN9__gnu_cxx13new_allocatorIPyED2Ev @187
    _ZN9__gnu_cxx13new_allocatorISsE10deallocateEPSsy @188
    _ZN9__gnu_cxx13new_allocatorISsE7destroyISsEEvPT_ @189
    _ZN9__gnu_cxx13new_allocatorISsE8allocateEyPKv @190
    _ZN9__gnu_cxx13new_allocatorISsE9constructISsIRKSsEEEvPT_DpOT0_ @191
    _ZN9__gnu_cxx13new_allocatorISsE9constructISsISsEEEvPT_DpOT0_ @192
    _ZN9__gnu_cxx13new_allocatorISsEC2ERKS1_ @193
    _ZN9__gnu_cxx13new_allocatorISsEC2Ev @194
    _ZN9__gnu_cxx13new_allocatorISsED2Ev @195
    _ZN9__gnu_cxx13new_allocatorISt10_List_nodeISsEE10deallocateEPS2_y @196
    _ZN9__gnu_cxx13new_allocatorISt10_List_nodeISsEE7destroyIS2_EEvPT_ @197
    _ZN9__gnu_cxx13new_allocatorISt10_List_nodeISsEE8allocateEyPKv @198
    _ZN9__gnu_cxx13new_allocatorISt10_List_nodeISsEE9constructIS2_IRKSsEEEvPT_DpOT0_ @199
    _ZN9__gnu_cxx13new_allocatorISt10_List_nodeISsEEC2Ev @200
    _ZN9__gnu_cxx13new_allocatorISt10_List_nodeISsEED2Ev @201
    _ZN9__gnu_cxx13new_allocatorISt10_List_nodeISt10shared_ptrIN3ocs6SystemEEEE10deallocateEPS6_y @202
    _ZN9__gnu_cxx13new_allocatorISt10_List_nodeISt10shared_ptrIN3ocs6SystemEEEE7destroyIS6_EEvPT_ @203
    _ZN9__gnu_cxx13new_allocatorISt10_List_nodeISt10shared_ptrIN3ocs6SystemEEEEC2Ev @204
    _ZN9__gnu_cxx13new_allocatorISt10_List_nodeISt10shared_ptrIN3ocs6SystemEEEED2Ev @205
    _ZN9__gnu_cxx13new_allocatorISt10shared_ptrIN3ocs11BaseMessageEEE10deallocateEPS4_y @206
    _ZN9__gnu_cxx13new_allocatorISt10shared_ptrIN3ocs11BaseMessageEEED2Ev @207
    _ZN9__gnu_cxx13new_allocatorISt13_Rb_tree_nodeISsEE10deallocateEPS2_y @208
    _ZN9__gnu_cxx13new_allocatorISt13_Rb_tree_nodeISsEE7destroyIS2_EEvPT_ @209
    _ZN9__gnu_cxx13new_allocatorISt13_Rb_tree_nodeISsEE8allocateEyPKv @210
    _ZN9__gnu_cxx13new_allocatorISt13_Rb_tree_nodeISsEE9constructIS2_IRKSsEEEvPT_DpOT0_ @211
    _ZN9__gnu_cxx13new_allocatorISt13_Rb_tree_nodeISsEEC2ERKS3_ @212
    _ZN9__gnu_cxx13new_allocatorISt13_Rb_tree_nodeISsEEC2Ev @213
    _ZN9__gnu_cxx13new_allocatorISt13_Rb_tree_nodeISsEED2Ev @214
    _ZN9__gnu_cxx13new_allocatorISt4pairIKSsN3ocs6ObjectEEEC2Ev @215
    _ZN9__gnu_cxx13new_allocatorISt4pairIKSsN3ocs6ObjectEEED2Ev @216
    _ZN9__gnu_cxx13new_allocatorISt4pairIKSsyEEC2Ev @217
    _ZN9__gnu_cxx13new_allocatorISt4pairIKSsyEED2Ev @218
    _ZN9__gnu_cxx13new_allocatorISt4pairIKyP18BaseComponentArrayEEC2Ev @219
    _ZN9__gnu_cxx13new_allocatorISt4pairIKyP18BaseComponentArrayEED2Ev @220
    _ZN9__gnu_cxx13new_allocatorISt4pairIKySt13unordered_mapIySt6vectorISt10shared_ptrIN3ocs11BaseMessageEESaIS8_EESt4hashIyESt8equal_toIyESaIS1_IS2_SA_EEEEEC2Ev @221
    _ZN9__gnu_cxx13new_allocatorISt4pairIKySt13unordered_mapIySt6vectorISt10shared_ptrIN3ocs11BaseMessageEESaIS8_EESt4hashIyESt8equal_toIyESaIS1_IS2_SA_EEEEED2Ev @222
    _ZN9__gnu_cxx13new_allocatorISt4pairIKySt6vectorISt10shared_ptrIN3ocs11BaseMessageEESaIS7_EEEEC2Ev @223
    _ZN9__gnu_cxx13new_allocatorISt4pairIKySt6vectorISt10shared_ptrIN3ocs11BaseMessageEESaIS7_EEEED2Ev @224
    _ZN9__gnu_cxx13new_allocatorISt4pairIKyyEEC2Ev @225
    _ZN9__gnu_cxx13new_allocatorISt4pairIKyyEED2Ev @226
    _ZN9__gnu_cxx13new_allocatorISt4pairIySsEE10deallocateEPS2_y @227
    _ZN9__gnu_cxx13new_allocatorISt4pairIySsEE8allocateEyPKv @228
    _ZN9__gnu_cxx13new_allocatorISt4pairIySsEEC2ERKS3_ @229
    _ZN9__gnu_cxx13new_allocatorISt4pairIySsEED2Ev @230
    _ZN9__gnu_cxx13new_allocatorISt6vectorISsSaISsEEE10deallocateEPS3_y @231
    _ZN9__gnu_cxx13new_allocatorISt6vectorISsSaISsEEE8allocateEyPKv @232
    _ZN9__gnu_cxx13new_allocatorISt6vectorISsSaISsEEEC2Ev @233
    _ZN9__gnu_cxx13new_allocatorISt6vectorISsSaISsEEED2Ev @234
    _ZN9__gnu_cxx13new_allocatorISt6vectorIbSaIbEEE10deallocateEPS3_y @235
    _ZN9__gnu_cxx13new_allocatorISt6vectorIbSaIbEEE8allocateEyPKv @236
    _ZN9__gnu_cxx13new_allocatorIiE10deallocateEPiy @237
    _ZN9__gnu_cxx13new_allocatorIiE8allocateEyPKv @238
    _ZN9__gnu_cxx13new_allocatorIiEC2ERKS1_ @239
    _ZN9__gnu_cxx13new_allocatorIiEC2Ev @240
    _ZN9__gnu_cxx13new_allocatorIiED2Ev @241
    _ZN9__gnu_cxx13new_allocatorImE10deallocateEPmy @242
    _ZN9__gnu_cxx13new_allocatorImE8allocateEyPKv @243
    _ZN9__gnu_cxx13new_allocatorImEC2ERKS1_ @244
    _ZN9__gnu_cxx13new_allocatorImEC2Ev @245
    _ZN9__gnu_cxx13new_allocatorImED2Ev @246
    _ZN9__gnu_cxx13new_allocatorIyE10deallocateEPyy @247
    _ZN9__gnu_cxx13new_allocatorIyE7destroyIyEEvPT_ @248
    _ZN9__gnu_cxx13new_allocatorIyE8allocateEyPKv @249
    _ZN9__gnu_cxx13new_allocatorIyE9constructIyIRKyEEEvPT_DpOT0_ @250
    _ZN9__gnu_cxx13new_allocatorIyEC2ERKS1_ @251
    _ZN9__gnu_cxx13new_allocatorIyEC2Ev @252
    _ZN9__gnu_cxx13new_allocatorIyED2Ev @253
    _ZN9__gnu_cxx14__alloc_traitsISaISsEE15_S_always_equalEv @254
    _ZN9__gnu_cxx14__alloc_traitsISaISsEE27_S_propagate_on_copy_assignEv @255
    _ZN9__gnu_cxx14__alloc_traitsISaISsEE27_S_propagate_on_move_assignEv @256
    _ZN9__gnu_cxx14__alloc_traitsISaISt4pairIySsEEE17_S_select_on_copyERKS3_ @257
    _ZN9__gnu_cxx17__normal_iteratorIPKSsSt6vectorISsSaISsEEEC1ERKS2_ @258
    _ZN9__gnu_cxx17__normal_iteratorIPKSsSt6vectorISsSaISsEEEppEv @259
    _ZN9__gnu_cxx17__normal_iteratorIPKSt10shared_ptrIN3ocs11BaseMessageEESt6vectorIS4_SaIS4_EEEC1ERKS6_ @260
    _ZN9__gnu_cxx17__normal_iteratorIPKSt10shared_ptrIN3ocs11BaseMessageEESt6vectorIS4_SaIS4_EEEppEv @261
    _ZN9__gnu_cxx17__normal_iteratorIPKSt4pairIySsESt6vectorIS2_SaIS2_EEEC1ERKS4_ @262
    _ZN9__gnu_cxx17__normal_iteratorIPKSt4pairIySsESt6vectorIS2_SaIS2_EEEppEv @263
    _ZN9__gnu_cxx17__normal_iteratorIPN3ocs6ObjectESt6vectorIS2_SaIS2_EEEC1ERKS3_ @264
    _ZN9__gnu_cxx17__normal_iteratorIPN3ocs6ObjectESt6vectorIS2_SaIS2_EEEppEv @265
    _ZN9__gnu_cxx17__normal_iteratorIPSsSt6vectorISsSaISsEEEC1ERKS1_ @266
    _ZN9__gnu_cxx17__normal_iteratorIPSsSt6vectorISsSaISsEEEppEv @267
    _ZN9__gnu_cxx17__normal_iteratorIPSt4pairIySsESt6vectorIS2_SaIS2_EEEC1ERKS3_ @268
    _ZN9__gnu_cxx17__normal_iteratorIPSt4pairIySsESt6vectorIS2_SaIS2_EEEppEv @269
    _ZN9__gnu_cxx17__normal_iteratorIPcSsEC1ERKS1_ @270
    _ZN9__gnu_cxx17__normal_iteratorIPcSsEmmEv @271
    _ZN9__gnu_cxx17__normal_iteratorIPcSsEppEv @272
    _ZN9__gnu_cxx17__normal_iteratorIPySt6vectorIySaIyEEEC1ERKS1_ @273
    _ZN9__gnu_cxx17__normal_iteratorIPySt6vectorIySaIyEEEppEv @274
    _ZN9__gnu_cxxeqIPcSsEEbRKNS_17__normal_iteratorIT_T0_EES7_ @275
    _ZN9__gnu_cxxneIPKSsSt6vectorISsSaISsEEEEbRKNS_17__normal_iteratorIT_T0_EESB_ @276
    _ZN9__gnu_cxxneIPKSt10shared_ptrIN3ocs11BaseMessageEESt6vectorIS4_SaIS4_EEEEbRKNS_17__normal_iteratorIT_T0_EESF_ @277
    _ZN9__gnu_cxxneIPKSt4pairIySsESt6vectorIS2_SaIS2_EEEEbRKNS_17__normal_iteratorIT_T0_EESD_ @278
    _ZN9__gnu_cxxneIPN3ocs6ObjectESt6vectorIS2_SaIS2_EEEEbRKNS_17__normal_iteratorIT_T0_EESC_ @279
    _ZN9__gnu_cxxneIPSsSt6vectorISsSaISsEEEEbRKNS_17__normal_iteratorIT_T0_EESA_ @280
    _ZN9__gnu_cxxneIPSt4pairIySsESt6vectorIS2_SaIS2_EEEEbRKNS_17__normal_iteratorIT_T0_EESC_ @281
    _ZN9__gnu_cxxneIPcSsEEbRKNS_17__normal_iteratorIT_T0_EES7_ @282
    _ZN9__gnu_cxxneIPySt6vectorIySaIyEEEEbRKNS_17__normal_iteratorIT_T0_EESA_ @283
    _ZNK10FileParser11getFilePathEv @284
    _ZNK11PackedArrayIN3ocs6ObjectEE4sizeEv @285
    _ZNK11PackedArrayIN3ocs6ObjectEE7isValidEy @286
    _ZNK3ocs11BaseMessage12getTimeStampEv @287
    _ZNK3ocs11Transceiver5getIDEv @288
    _ZNK3ocs13ObjectManager15getTotalObjectsEv @289
    _ZNK3ocs13ObjectManager18doesPrototypeExistERKSs @290
    _ZNK3ocs13SystemManager10getVersionEv @291
    _ZNK3ocs13SystemManager15getTotalSystemsEv @292
    _ZNK3ocs6Object19serializeComponentsEv @293
    _ZNK9__gnu_cxx13new_allocatorIN3ocs6ObjectEE8max_sizeEv @294
    _ZNK9__gnu_cxx13new_allocatorINSt8__detail10_Hash_nodeISt4pairIKSsN3ocs6ObjectEELb1EEEE8max_sizeEv @295
    _ZNK9__gnu_cxx13new_allocatorINSt8__detail10_Hash_nodeISt4pairIKSsyELb1EEEE8max_sizeEv @296
    _ZNK9__gnu_cxx13new_allocatorINSt8__detail10_Hash_nodeISt4pairIKyP18BaseComponentArrayELb0EEEE8max_sizeEv @297
    _ZNK9__gnu_cxx13new_allocatorINSt8__detail10_Hash_nodeISt4pairIKySt13unordered_mapIySt6vectorISt10shared_ptrIN3ocs11BaseMessageEESaISA_EESt4hashIyESt8equal_toIyESaIS3_IS4_SC_EEEELb0EEEE8max_sizeEv @298
    _ZNK9__gnu_cxx13new_allocatorINSt8__detail10_Hash_nodeISt4pairIKyyELb0EEEE8max_sizeEv @299
    _ZNK9__gnu_cxx13new_allocatorIPNSt8__detail15_Hash_node_baseEE8max_sizeEv @300
    _ZNK9__gnu_cxx13new_allocatorIPyE8max_sizeEv @301
    _ZNK9__gnu_cxx13new_allocatorISsE8max_sizeEv @302
    _ZNK9__gnu_cxx13new_allocatorISt10_List_nodeISsEE8max_sizeEv @303
    _ZNK9__gnu_cxx13new_allocatorISt13_Rb_tree_nodeISsEE8max_sizeEv @304
    _ZNK9__gnu_cxx13new_allocatorISt4pairIySsEE8max_sizeEv @305
    _ZNK9__gnu_cxx13new_allocatorISt6vectorISsSaISsEEE8max_sizeEv @306
    _ZNK9__gnu_cxx13new_allocatorISt6vectorIbSaIbEEE8max_sizeEv @307
    _ZNK9__gnu_cxx13new_allocatorIiE8max_sizeEv @308
    _ZNK9__gnu_cxx13new_allocatorImE8max_sizeEv @309
    _ZNK9__gnu_cxx13new_allocatorIyE8max_sizeEv @310
    _ZNK9__gnu_cxx17__normal_iteratorIPKSsSt6vectorISsSaISsEEE4baseEv @311
    _ZNK9__gnu_cxx17__normal_iteratorIPKSsSt6vectorISsSaISsEEEdeEv @312
    _ZNK9__gnu_cxx17__normal_iteratorIPKSt10shared_ptrIN3ocs11BaseMessageEESt6vectorIS4_SaIS4_EEE4baseEv @313
    _ZNK9__gnu_cxx17__normal_iteratorIPKSt10shared_ptrIN3ocs11BaseMessageEESt6vectorIS4_SaIS4_EEEdeEv @314
    _ZNK9__gnu_cxx17__normal_iteratorIPKSt4pairIySsESt6vectorIS2_SaIS2_EEE4baseEv @315
    _ZNK9__gnu_cxx17__normal_iteratorIPKSt4pairIySsESt6vectorIS2_SaIS2_EEEdeEv @316
    _ZNK9__gnu_cxx17__normal_iteratorIPN3ocs6ObjectESt6vectorIS2_SaIS2_EEE4baseEv @317
    _ZNK9__gnu_cxx17__normal_iteratorIPN3ocs6ObjectESt6vectorIS2_SaIS2_EEEdeEv @318
    _ZNK9__gnu_cxx17__normal_iteratorIPSsSt6vectorISsSaISsEEE4baseEv @319
    _ZNK9__gnu_cxx17__normal_iteratorIPSsSt6vectorISsSaISsEEEdeEv @320
    _ZNK9__gnu_cxx17__normal_iteratorIPSsSt6vectorISsSaISsEEEmiERKx @321
    _ZNK9__gnu_cxx17__normal_iteratorIPSt4pairIySsESt6vectorIS2_SaIS2_EEE4baseEv @322
    _ZNK9__gnu_cxx17__normal_iteratorIPSt4pairIySsESt6vectorIS2_SaIS2_EEEdeEv @323
    _ZNK9__gnu_cxx17__normal_iteratorIPcSsE4baseEv @324
    _ZNK9__gnu_cxx17__normal_iteratorIPcSsEdeEv @325
    _ZNK9__gnu_cxx17__normal_iteratorIPcSsEmiERKx @326
    _ZNK9__gnu_cxx17__normal_iteratorIPySt6vectorIySaIyEEE4baseEv @327
    _ZNK9__gnu_cxx17__normal_iteratorIPySt6vectorIySaIyEEEdeEv @328
    _ZNKSt10_HashtableISsSt4pairIKSsN3ocs6ObjectEESaIS4_ENSt8__detail10_Select1stESt8equal_toISsESt4hashISsENS6_18_Mod_range_hashingENS6_20_Default_ranged_hashENS6_20_Prime_rehash_policyENS6_17_Hashtable_traitsILb1ELb0ELb1EEEE12_M_find_nodeEyRS1_y @329
    _ZNKSt10_HashtableISsSt4pairIKSsN3ocs6ObjectEESaIS4_ENSt8__detail10_Select1stESt8equal_toISsESt4hashISsENS6_18_Mod_range_hashingENS6_20_Default_ranged_hashENS6_20_Prime_rehash_policyENS6_17_Hashtable_traitsILb1ELb0ELb1EEEE15_M_before_beginEv @330
    _ZNKSt10_HashtableISsSt4pairIKSsN3ocs6ObjectEESaIS4_ENSt8__detail10_Select1stESt8equal_toISsESt4hashISsENS6_18_Mod_range_hashingENS6_20_Default_ranged_hashENS6_20_Prime_rehash_policyENS6_17_Hashtable_traitsILb1ELb0ELb1EEEE15_M_bucket_indexEPNS6_10_Hash_nodeIS4_Lb1EEE @331
    _ZNKSt10_HashtableISsSt4pairIKSsN3ocs6ObjectEESaIS4_ENSt8__detail10_Select1stESt8equal_toISsESt4hashISsENS6_18_Mod_range_hashingENS6_20_Default_ranged_hashENS6_20_Prime_rehash_policyENS6_17_Hashtable_traitsILb1ELb0ELb1EEEE15_M_bucket_indexERS1_y @332
    _ZNKSt10_HashtableISsSt4pairIKSsN3ocs6ObjectEESaIS4_ENSt8__detail10_Select1stESt8equal_toISsESt4hashISsENS6_18_Mod_range_hashingENS6_20_Default_ranged_hashENS6_20_Prime_rehash_policyENS6_17_Hashtable_traitsILb1ELb0ELb1EEEE19_M_find_before_nodeEyRS1_y @333
    _ZNKSt10_HashtableISsSt4pairIKSsN3ocs6ObjectEESaIS4_ENSt8__detail10_Select1stESt8equal_toISsESt4hashISsENS6_18_Mod_range_hashingENS6_20_Default_ranged_hashENS6_20_Prime_rehash_policyENS6_17_Hashtable_traitsILb1ELb0ELb1EEEE3endEv @334
    _ZNKSt10_HashtableISsSt4pairIKSsN3ocs6ObjectEESaIS4_ENSt8__detail10_Select1stESt8equal_toISsESt4hashISsENS6_18_Mod_range_hashingENS6_20_Default_ranged_hashENS6_20_Prime_rehash_policyENS6_17_Hashtable_traitsILb1ELb0ELb1EEEE4findERS1_ @335
    _ZNKSt10_HashtableISsSt4pairIKSsN3ocs6ObjectEESaIS4_ENSt8__detail10_Select1stESt8equal_toISsESt4hashISsENS6_18_Mod_range_hashingENS6_20_Default_ranged_hashENS6_20_Prime_rehash_policyENS6_17_Hashtable_traitsILb1ELb0ELb1EEEE8_M_beginEv @336
    _ZNKSt10_HashtableISsSt4pairIKSsyESaIS2_ENSt8__detail10_Select1stESt8equal_toISsESt4hashISsENS4_18_Mod_range_hashingENS4_20_Default_ranged_hashENS4_20_Prime_rehash_policyENS4_17_Hashtable_traitsILb1ELb0ELb1EEEE12_M_find_nodeEyRS1_y @337
    _ZNKSt10_HashtableISsSt4pairIKSsyESaIS2_ENSt8__detail10_Select1stESt8equal_toISsESt4hashISsENS4_18_Mod_range_hashingENS4_20_Default_ranged_hashENS4_20_Prime_rehash_policyENS4_17_Hashtable_traitsILb1ELb0ELb1EEEE15_M_before_beginEv @338
    _ZNKSt10_HashtableISsSt4pairIKSsyESaIS2_ENSt8__detail10_Select1stESt8equal_toISsESt4hashISsENS4_18_Mod_range_hashingENS4_20_Default_ranged_hashENS4_20_Prime_rehash_policyENS4_17_Hashtable_traitsILb1ELb0ELb1EEEE15_M_bucket_indexEPNS4_10_Hash_nodeIS2_Lb1EEE @339
    _ZNKSt10_HashtableISsSt4pairIKSsyESaIS2_ENSt8__detail10_Select1stESt8equal_toISsESt4hashISsENS4_18_Mod_range_hashingENS4_20_Default_ranged_hashENS4_20_Prime_rehash_policyENS4_17_Hashtable_traitsILb1ELb0ELb1EEEE15_M_bucket_indexERS1_y @340
    _ZNKSt10_HashtableISsSt4pairIKSsyESaIS2_ENSt8__detail10_Select1stESt8equal_toISsESt4hashISsENS4_18_Mod_range_hashingENS4_20_Default_ranged_hashENS4_20_Prime_rehash_policyENS4_17_Hashtable_traitsILb1ELb0ELb1EEEE19_M_find_before_nodeEyRS1_y @341
    _ZNKSt10_HashtableISsSt4pairIKSsyESaIS2_ENSt8__detail10_Select1stESt8equal_toISsESt4hashISsENS4_18_Mod_range_hashingENS4_20_Default_ranged_hashENS4_20_Prime_rehash_policyENS4_17_Hashtable_traitsILb1ELb0ELb1EEEE8_M_beginEv @342
    _ZNKSt10_HashtableIySt4pairIKyP18BaseComponentArrayESaIS4_ENSt8__detail10_Select1stESt8equal_toIyESt4hashIyENS6_18_Mod_range_hashingENS6_20_Default_ranged_hashENS6_20_Prime_rehash_policyENS6_17_Hashtable_traitsILb0ELb0ELb1EEEE12_M_find_nodeEyRS1_y @343
    _ZNKSt10_HashtableIySt4pairIKyP18BaseComponentArrayESaIS4_ENSt8__detail10_Select1stESt8equal_toIyESt4hashIyENS6_18_Mod_range_hashingENS6_20_Default_ranged_hashENS6_20_Prime_rehash_policyENS6_17_Hashtable_traitsILb0ELb0ELb1EEEE15_M_before_beginEv @344
    _ZNKSt10_HashtableIySt4pairIKyP18BaseComponentArrayESaIS4_ENSt8__detail10_Select1stESt8equal_toIyESt4hashIyENS6_18_Mod_range_hashingENS6_20_Default_ranged_hashENS6_20_Prime_rehash_policyENS6_17_Hashtable_traitsILb0ELb0ELb1EEEE15_M_bucket_indexEPNS6_10_Hash_nodeIS4_Lb0EEE @345
    _ZNKSt10_HashtableIySt4pairIKyP18BaseComponentArrayESaIS4_ENSt8__detail10_Select1stESt8equal_toIyESt4hashIyENS6_18_Mod_range_hashingENS6_20_Default_ranged_hashENS6_20_Prime_rehash_policyENS6_17_Hashtable_traitsILb0ELb0ELb1EEEE15_M_bucket_indexERS1_y @346
    _ZNKSt10_HashtableIySt4pairIKyP18BaseComponentArrayESaIS4_ENSt8__detail10_Select1stESt8equal_toIyESt4hashIyENS6_18_Mod_range_hashingENS6_20_Default_ranged_hashENS6_20_Prime_rehash_policyENS6_17_Hashtable_traitsILb0ELb0ELb1EEEE19_M_find_before_nodeEyRS1_y @347
    _ZNKSt10_HashtableIySt4pairIKyP18BaseComponentArrayESaIS4_ENSt8__detail10_Select1stESt8equal_toIyESt4hashIyENS6_18_Mod_range_hashingENS6_20_Default_ranged_hashENS6_20_Prime_rehash_policyENS6_17_Hashtable_traitsILb0ELb0ELb1EEEE8_M_beginEv @348
    _ZNKSt10_HashtableIySt4pairIKySt13unordered_mapIySt6vectorISt10shared_ptrIN3ocs11BaseMessageEESaIS7_EESt4hashIyESt8equal_toIyESaIS0_IS1_S9_EEEESaISH_ENSt8__detail10_Select1stESD_SB_NSJ_18_Mod_range_hashingENSJ_20_Default_ranged_hashENSJ_20_Prime_rehash_policyENSJ_17_Hashtable_traitsILb0ELb0ELb1EEEE12_M_find_nodeEyRS1_y @349
    _ZNKSt10_HashtableIySt4pairIKySt13unordered_mapIySt6vectorISt10shared_ptrIN3ocs11BaseMessageEESaIS7_EESt4hashIyESt8equal_toIyESaIS0_IS1_S9_EEEESaISH_ENSt8__detail10_Select1stESD_SB_NSJ_18_Mod_range_hashingENSJ_20_Default_ranged_hashENSJ_20_Prime_rehash_policyENSJ_17_Hashtable_traitsILb0ELb0ELb1EEEE15_M_before_beginEv @350
    _ZNKSt10_HashtableIySt4pairIKySt13unordered_mapIySt6vectorISt10shared_ptrIN3ocs11BaseMessageEESaIS7_EESt4hashIyESt8equal_toIyESaIS0_IS1_S9_EEEESaISH_ENSt8__detail10_Select1stESD_SB_NSJ_18_Mod_range_hashingENSJ_20_Default_ranged_hashENSJ_20_Prime_rehash_policyENSJ_17_Hashtable_traitsILb0ELb0ELb1EEEE15_M_bucket_indexEPNSJ_10_Hash_nodeISH_Lb0EEE @351
    _ZNKSt10_HashtableIySt4pairIKySt13unordered_mapIySt6vectorISt10shared_ptrIN3ocs11BaseMessageEESaIS7_EESt4hashIyESt8equal_toIyESaIS0_IS1_S9_EEEESaISH_ENSt8__detail10_Select1stESD_SB_NSJ_18_Mod_range_hashingENSJ_20_Default_ranged_hashENSJ_20_Prime_rehash_policyENSJ_17_Hashtable_traitsILb0ELb0ELb1EEEE15_M_bucket_indexERS1_y @352
    _ZNKSt10_HashtableIySt4pairIKySt13unordered_mapIySt6vectorISt10shared_ptrIN3ocs11BaseMessageEESaIS7_EESt4hashIyESt8equal_toIyESaIS0_IS1_S9_EEEESaISH_ENSt8__detail10_Select1stESD_SB_NSJ_18_Mod_range_hashingENSJ_20_Default_ranged_hashENSJ_20_Prime_rehash_policyENSJ_17_Hashtable_traitsILb0ELb0ELb1EEEE19_M_find_before_nodeEyRS1_y @353
    _ZNKSt10_HashtableIySt4pairIKySt13unordered_mapIySt6vectorISt10shared_ptrIN3ocs11BaseMessageEESaIS7_EESt4hashIyESt8equal_toIyESaIS0_IS1_S9_EEEESaISH_ENSt8__detail10_Select1stESD_SB_NSJ_18_Mod_range_hashingENSJ_20_Default_ranged_hashENSJ_20_Prime_rehash_policyENSJ_17_Hashtable_traitsILb0ELb0ELb1EEEE8_M_beginEv @354
    _ZNKSt10_HashtableIySt4pairIKySt6vectorISt10shared_ptrIN3ocs11BaseMessageEESaIS6_EEESaIS9_ENSt8__detail10_Select1stESt8equal_toIyESt4hashIyENSB_18_Mod_range_hashingENSB_20_Default_ranged_hashENSB_20_Prime_rehash_policyENSB_17_Hashtable_traitsILb0ELb0ELb1EEEE15_M_before_beginEv @355
    _ZNKSt10_HashtableIySt4pairIKySt6vectorISt10shared_ptrIN3ocs11BaseMessageEESaIS6_EEESaIS9_ENSt8__detail10_Select1stESt8equal_toIyESt4hashIyENSB_18_Mod_range_hashingENSB_20_Default_ranged_hashENSB_20_Prime_rehash_policyENSB_17_Hashtable_traitsILb0ELb0ELb1EEEE3endEv @356
    _ZNKSt10_HashtableIySt4pairIKySt6vectorISt10shared_ptrIN3ocs11BaseMessageEESaIS6_EEESaIS9_ENSt8__detail10_Select1stESt8equal_toIyESt4hashIyENSB_18_Mod_range_hashingENSB_20_Default_ranged_hashENSB_20_Prime_rehash_policyENSB_17_Hashtable_traitsILb0ELb0ELb1EEEE5beginEv @357
    _ZNKSt10_HashtableIySt4pairIKySt6vectorISt10shared_ptrIN3ocs11BaseMessageEESaIS6_EEESaIS9_ENSt8__detail10_Select1stESt8equal_toIyESt4hashIyENSB_18_Mod_range_hashingENSB_20_Default_ranged_hashENSB_20_Prime_rehash_policyENSB_17_Hashtable_traitsILb0ELb0ELb1EEEE8_M_beginEv @358
    _ZNKSt10_HashtableIySt4pairIKyyESaIS2_ENSt8__detail10_Select1stESt8equal_toIyESt4hashIyENS4_18_Mod_range_hashingENS4_20_Default_ranged_hashENS4_20_Prime_rehash_policyENS4_17_Hashtable_traitsILb0ELb0ELb1EEEE12_M_find_nodeEyRS1_y @359
    _ZNKSt10_HashtableIySt4pairIKyyESaIS2_ENSt8__detail10_Select1stESt8equal_toIyESt4hashIyENS4_18_Mod_range_hashingENS4_20_Default_ranged_hashENS4_20_Prime_rehash_policyENS4_17_Hashtable_traitsILb0ELb0ELb1EEEE15_M_before_beginEv @360
    _ZNKSt10_HashtableIySt4pairIKyyESaIS2_ENSt8__detail10_Select1stESt8equal_toIyESt4hashIyENS4_18_Mod_range_hashingENS4_20_Default_ranged_hashENS4_20_Prime_rehash_policyENS4_17_Hashtable_traitsILb0ELb0ELb1EEEE15_M_bucket_indexEPNS4_10_Hash_nodeIS2_Lb0EEE @361
    _ZNKSt10_HashtableIySt4pairIKyyESaIS2_ENSt8__detail10_Select1stESt8equal_toIyESt4hashIyENS4_18_Mod_range_hashingENS4_20_Default_ranged_hashENS4_20_Prime_rehash_policyENS4_17_Hashtable_traitsILb0ELb0ELb1EEEE15_M_bucket_indexERS1_y @362
    _ZNKSt10_HashtableIySt4pairIKyyESaIS2_ENSt8__detail10_Select1stESt8equal_toIyESt4hashIyENS4_18_Mod_range_hashingENS4_20_Default_ranged_hashENS4_20_Prime_rehash_policyENS4_17_Hashtable_traitsILb0ELb0ELb1EEEE19_M_find_before_nodeEyRS1_y @363
    _ZNKSt10_HashtableIySt4pairIKyyESaIS2_ENSt8__detail10_Select1stESt8equal_toIyESt4hashIyENS4_18_Mod_range_hashingENS4_20_Default_ranged_hashENS4_20_Prime_rehash_policyENS4_17_Hashtable_traitsILb0ELb0ELb1EEEE3endEv @364
    _ZNKSt10_HashtableIySt4pairIKyyESaIS2_ENSt8__detail10_Select1stESt8equal_toIyESt4hashIyENS4_18_Mod_range_hashingENS4_20_Default_ranged_hashENS4_20_Prime_rehash_policyENS4_17_Hashtable_traitsILb0ELb0ELb1EEEE5beginEv @365
    _ZNKSt10_HashtableIySt4pairIKyyESaIS2_ENSt8__detail10_Select1stESt8equal_toIyESt4hashIyENS4_18_Mod_range_hashingENS4_20_Default_ranged_hashENS4_20_Prime_rehash_policyENS4_17_Hashtable_traitsILb0ELb0ELb1EEEE8_M_beginEv @366
    _ZNKSt11_Deque_baseIySaIyEE19_M_get_Tp_allocatorEv @367
    _ZNKSt11_Deque_baseIySaIyEE20_M_get_map_allocatorEv @368
    _ZNKSt12_Vector_baseIN3ocs6ObjectESaIS1_EE19_M_get_Tp_allocatorEv @369
    _ZNKSt12_Vector_baseISsSaISsEE19_M_get_Tp_allocatorEv @370
    _ZNKSt12_Vector_baseISt4pairIySsESaIS1_EE19_M_get_Tp_allocatorEv @371
    _ZNKSt12_Vector_baseISt6vectorISsSaISsEESaIS2_EE19_M_get_Tp_allocatorEv @372
    _ZNKSt12_Vector_baseISt6vectorIbSaIbEESaIS2_EE19_M_get_Tp_allocatorEv @373
    _ZNKSt12_Vector_baseIySaIyEE19_M_get_Tp_allocatorEv @374
    _ZNKSt12__shared_ptrIN3ocs11BaseMessageELN9__gnu_cxx12_Lock_policyE2EEptEv @375
    _ZNKSt12__shared_ptrIN3ocs6SystemELN9__gnu_cxx12_Lock_policyE2EEptEv @376
    _ZNKSt13_Bit_iteratordeEv @377
    _ZNKSt13_Bit_iteratorplEx @378
    _ZNKSt13_Bvector_baseISaIbEE20_M_get_Bit_allocatorEv @379
    _ZNKSt13move_iteratorIPSsE4baseEv @380
    _ZNKSt13move_iteratorIPSsEdeEv @381
    _ZNKSt13move_iteratorIPSt6vectorISsSaISsEEE4baseEv @382
    _ZNKSt13move_iteratorIPSt6vectorISsSaISsEEEdeEv @383
    _ZNKSt13move_iteratorIPSt6vectorIbSaIbEEE4baseEv @384
    _ZNKSt13move_iteratorIPSt6vectorIbSaIbEEEdeEv @385
    _ZNKSt13move_iteratorIPyE4baseEv @386
    _ZNKSt13unordered_mapISsN3ocs6ObjectESt4hashISsESt8equal_toISsESaISt4pairIKSsS1_EEE3endEv @387
    _ZNKSt13unordered_mapISsN3ocs6ObjectESt4hashISsESt8equal_toISsESaISt4pairIKSsS1_EEE4findERS7_ @388
    _ZNKSt13unordered_mapIyP18BaseComponentArraySt4hashIyESt8equal_toIyESaISt4pairIKyS1_EEE2atERS7_ @389
    _ZNKSt13unordered_mapIySt6vectorISt10shared_ptrIN3ocs11BaseMessageEESaIS4_EESt4hashIyESt8equal_toIyESaISt4pairIKyS6_EEE3endEv @390
    _ZNKSt13unordered_mapIySt6vectorISt10shared_ptrIN3ocs11BaseMessageEESaIS4_EESt4hashIyESt8equal_toIyESaISt4pairIKyS6_EEE5beginEv @391
    _ZNKSt13unordered_mapIyySt4hashIyESt8equal_toIyESaISt4pairIKyyEEE3endEv @392
    _ZNKSt13unordered_mapIyySt4hashIyESt8equal_toIyESaISt4pairIKyyEEE5beginEv @393
    _ZNKSt14_Bit_referencecvbEv @394
    _ZNKSt14_List_iteratorISsEdeEv @395
    _ZNKSt14_List_iteratorISsEneERKS0_ @396
    _ZNKSt14_List_iteratorISt10shared_ptrIN3ocs6SystemEEEdeEv @397
    _ZNKSt14_List_iteratorISt10shared_ptrIN3ocs6SystemEEEneERKS4_ @398
    _ZNKSt15_Deque_iteratorIyRyPyEdeEv @399
    _ZNKSt16initializer_listISsE3endEv @400
    _ZNKSt16initializer_listISsE4sizeEv @401
    _ZNKSt16initializer_listISsE5beginEv @402
    _ZNKSt17_Rb_tree_iteratorISsEeqERKS0_ @403
    _ZNKSt19_Bit_const_iteratordeEv @404
    _ZNKSt20_List_const_iteratorISt10shared_ptrIN3ocs6SystemEEEneERKS4_ @405
    _ZNKSt23_Rb_tree_const_iteratorISsE13_M_const_castEv @406
    _ZNKSt23_Rb_tree_const_iteratorISsEdeEv @407
    _ZNKSt23_Rb_tree_const_iteratorISsEeqERKS0_ @408
    _ZNKSt23_Rb_tree_const_iteratorISsEneERKS0_ @409
    _ZNKSt3setISsSt4lessISsESaISsEE3endEv @410
    _ZNKSt3setISsSt4lessISsESaISsEE4findERKSs @411
    _ZNKSt3setISsSt4lessISsESaISsEE5beginEv @412
    _ZNKSt4hashISsEclERKSs @413
    _ZNKSt4hashIyEclEy @414
    _ZNKSt4lessISsEclERKSsS2_ @415
    _ZNKSt4listISt10shared_ptrIN3ocs6SystemEESaIS3_EE3endEv @416
    _ZNKSt4listISt10shared_ptrIN3ocs6SystemEESaIS3_EE4sizeEv @417
    _ZNKSt4listISt10shared_ptrIN3ocs6SystemEESaIS3_EE5beginEv @418
    _ZNKSt5dequeIySaIyEE4sizeEv @419
    _ZNKSt5dequeIySaIyEE5emptyEv @420
    _ZNKSt5queueIySt5dequeIySaIyEEE5emptyEv @421
    _ZNKSt5stackIySt5dequeIySaIyEEE4sizeEv @422
    _ZNKSt6chrono10time_pointINS_3_V212system_clockENS_8durationIxSt5ratioILx1ELx1000000000EEEEE16time_since_epochEv @423
    _ZNKSt6chrono8durationIdSt5ratioILx1ELx1EEE5countEv @424
    _ZNKSt6chrono8durationIxSt5ratioILx1ELx1000000000EEE5countEv @425
    _ZNKSt6vectorIN3ocs6ObjectESaIS1_EE12_M_check_lenEyPKc @426
    _ZNKSt6vectorIN3ocs6ObjectESaIS1_EE4sizeEv @427
    _ZNKSt6vectorIN3ocs6ObjectESaIS1_EE8capacityEv @428
    _ZNKSt6vectorIN3ocs6ObjectESaIS1_EE8max_sizeEv @429
    _ZNKSt6vectorIS_ISsSaISsEESaIS1_EE12_M_check_lenEyPKc @430
    _ZNKSt6vectorIS_ISsSaISsEESaIS1_EE4sizeEv @431
    _ZNKSt6vectorIS_ISsSaISsEESaIS1_EE8max_sizeEv @432
    _ZNKSt6vectorIS_ISsSaISsEESaIS1_EEixEy @433
    _ZNKSt6vectorIS_IbSaIbEESaIS1_EE12_M_check_lenEyPKc @434
    _ZNKSt6vectorIS_IbSaIbEESaIS1_EE4sizeEv @435
    _ZNKSt6vectorIS_IbSaIbEESaIS1_EE8max_sizeEv @436
    _ZNKSt6vectorIS_IbSaIbEESaIS1_EEixEy @437
    _ZNKSt6vectorISsSaISsEE12_M_check_lenEyPKc @438
    _ZNKSt6vectorISsSaISsEE3endEv @439
    _ZNKSt6vectorISsSaISsEE4sizeEv @440
    _ZNKSt6vectorISsSaISsEE5beginEv @441
    _ZNKSt6vectorISsSaISsEE8capacityEv @442
    _ZNKSt6vectorISsSaISsEE8max_sizeEv @443
    _ZNKSt6vectorISsSaISsEEixEy @444
    _ZNKSt6vectorISt10shared_ptrIN3ocs11BaseMessageEESaIS3_EE3endEv @445
    _ZNKSt6vectorISt10shared_ptrIN3ocs11BaseMessageEESaIS3_EE5beginEv @446
    _ZNKSt6vectorISt4pairIySsESaIS1_EE3endEv @447
    _ZNKSt6vectorISt4pairIySsESaIS1_EE4sizeEv @448
    _ZNKSt6vectorISt4pairIySsESaIS1_EE5beginEv @449
    _ZNKSt6vectorIbSaIbEE12_M_check_lenEyPKc @450
    _ZNKSt6vectorIbSaIbEE3endEv @451
    _ZNKSt6vectorIbSaIbEE4sizeEv @452
    _ZNKSt6vectorIbSaIbEE5beginEv @453
    _ZNKSt6vectorIbSaIbEE8capacityEv @454
    _ZNKSt6vectorIbSaIbEE8max_sizeEv @455
    _ZNKSt6vectorIbSaIbEEixEy @456
    _ZNKSt6vectorIiSaIiEE4sizeEv @457
    _ZNKSt6vectorIySaIyEE12_M_check_lenEyPKc @458
    _ZNKSt6vectorIySaIyEE4sizeEv @459
    _ZNKSt6vectorIySaIyEE8capacityEv @460
    _ZNKSt6vectorIySaIyEE8max_sizeEv @461
    _ZNKSt6vectorIySaIyEEixEy @462
    _ZNKSt8_Rb_treeISsSsSt9_IdentityISsESt4lessISsESaISsEE14_M_lower_boundEPKSt13_Rb_tree_nodeISsES9_RKSs @463
    _ZNKSt8_Rb_treeISsSsSt9_IdentityISsESt4lessISsESaISsEE3endEv @464
    _ZNKSt8_Rb_treeISsSsSt9_IdentityISsESt4lessISsESaISsEE4findERKSs @465
    _ZNKSt8_Rb_treeISsSsSt9_IdentityISsESt4lessISsESaISsEE4sizeEv @466
    _ZNKSt8_Rb_treeISsSsSt9_IdentityISsESt4lessISsESaISsEE5beginEv @467
    _ZNKSt8_Rb_treeISsSsSt9_IdentityISsESt4lessISsESaISsEE6_M_endEv @468
    _ZNKSt8_Rb_treeISsSsSt9_IdentityISsESt4lessISsESaISsEE8_M_beginEv @469
    _ZNKSt8__detail10_Hash_nodeISt4pairIKSsN3ocs6ObjectEELb1EE7_M_nextEv @470
    _ZNKSt8__detail10_Hash_nodeISt4pairIKSsyELb1EE7_M_nextEv @471
    _ZNKSt8__detail10_Hash_nodeISt4pairIKyP18BaseComponentArrayELb0EE7_M_nextEv @472
    _ZNKSt8__detail10_Hash_nodeISt4pairIKySt13unordered_mapIySt6vectorISt10shared_ptrIN3ocs11BaseMessageEESaIS8_EESt4hashIyESt8equal_toIyESaIS1_IS2_SA_EEEELb0EE7_M_nextEv @473
    _ZNKSt8__detail10_Hash_nodeISt4pairIKySt6vectorISt10shared_ptrIN3ocs11BaseMessageEESaIS7_EEELb0EE7_M_nextEv @474
    _ZNKSt8__detail10_Hash_nodeISt4pairIKyyELb0EE7_M_nextEv @475
    _ZNKSt8__detail10_Select1stclIRKSt4pairIKyP18BaseComponentArrayEEEDTcl3getILi0EEcl7forwardIT_Efp_EEEOS9_ @476
    _ZNKSt8__detail10_Select1stclIRKSt4pairIKySt13unordered_mapIySt6vectorISt10shared_ptrIN3ocs11BaseMessageEESaIS9_EESt4hashIyESt8equal_toIyESaIS2_IS3_SB_EEEEEEDTcl3getILi0EEcl7forwardIT_Efp_EEEOSM_ @477
    _ZNKSt8__detail10_Select1stclIRKSt4pairIKyyEEEDTcl3getILi0EEcl7forwardIT_Efp_EEEOS7_ @478
    _ZNKSt8__detail10_Select1stclIRSt4pairIKSsN3ocs6ObjectEEEEDTcl3getILi0EEcl7forwardIT_Efp_EEEOS8_ @479
    _ZNKSt8__detail10_Select1stclIRSt4pairIKSsyEEEDTcl3getILi0EEcl7forwardIT_Efp_EEEOS6_ @480
    _ZNKSt8__detail10_Select1stclIRSt4pairIKyP18BaseComponentArrayEEEDTcl3getILi0EEcl7forwardIT_Efp_EEEOS8_ @481
    _ZNKSt8__detail10_Select1stclIRSt4pairIKySt13unordered_mapIySt6vectorISt10shared_ptrIN3ocs11BaseMessageEESaIS9_EESt4hashIyESt8equal_toIyESaIS2_IS3_SB_EEEEEEDTcl3getILi0EEcl7forwardIT_Efp_EEEOSL_ @482
    _ZNKSt8__detail10_Select1stclIRSt4pairIKyyEEEDTcl3getILi0EEcl7forwardIT_Efp_EEEOS6_ @483
    _ZNKSt8__detail14_Node_iteratorISt4pairIKSsN3ocs6ObjectEELb0ELb1EEptEv @484
    _ZNKSt8__detail14_Node_iteratorISt4pairIKSsyELb0ELb1EEptEv @485
    _ZNKSt8__detail14_Node_iteratorISt4pairIKyP18BaseComponentArrayELb0ELb0EEdeEv @486
    _ZNKSt8__detail14_Node_iteratorISt4pairIKyP18BaseComponentArrayELb0ELb0EEptEv @487
    _ZNKSt8__detail14_Node_iteratorISt4pairIKySt13unordered_mapIySt6vectorISt10shared_ptrIN3ocs11BaseMessageEESaIS8_EESt4hashIyESt8equal_toIyESaIS1_IS2_SA_EEEELb0ELb0EEptEv @488
    _ZNKSt8__detail14_Node_iteratorISt4pairIKySt6vectorISt10shared_ptrIN3ocs11BaseMessageEESaIS7_EEELb0ELb0EEdeEv @489
    _ZNKSt8__detail14_Node_iteratorISt4pairIKyyELb0ELb0EEptEv @490
    _ZNKSt8__detail15_Hash_code_baseISsSt4pairIKSsN3ocs6ObjectEENS_10_Select1stESt4hashISsENS_18_Mod_range_hashingENS_20_Default_ranged_hashELb1EE10_M_extractEv @491
    _ZNKSt8__detail15_Hash_code_baseISsSt4pairIKSsN3ocs6ObjectEENS_10_Select1stESt4hashISsENS_18_Mod_range_hashingENS_20_Default_ranged_hashELb1EE12_M_hash_codeERS2_ @492
    _ZNKSt8__detail15_Hash_code_baseISsSt4pairIKSsN3ocs6ObjectEENS_10_Select1stESt4hashISsENS_18_Mod_range_hashingENS_20_Default_ranged_hashELb1EE13_M_store_codeEPNS_10_Hash_nodeIS5_Lb1EEEy @493
    _ZNKSt8__detail15_Hash_code_baseISsSt4pairIKSsN3ocs6ObjectEENS_10_Select1stESt4hashISsENS_18_Mod_range_hashingENS_20_Default_ranged_hashELb1EE15_M_bucket_indexEPKNS_10_Hash_nodeIS5_Lb1EEEy @494
    _ZNKSt8__detail15_Hash_code_baseISsSt4pairIKSsN3ocs6ObjectEENS_10_Select1stESt4hashISsENS_18_Mod_range_hashingENS_20_Default_ranged_hashELb1EE15_M_bucket_indexERS2_yy @495
    _ZNKSt8__detail15_Hash_code_baseISsSt4pairIKSsN3ocs6ObjectEENS_10_Select1stESt4hashISsENS_18_Mod_range_hashingENS_20_Default_ranged_hashELb1EE5_M_h1Ev @496
    _ZNKSt8__detail15_Hash_code_baseISsSt4pairIKSsN3ocs6ObjectEENS_10_Select1stESt4hashISsENS_18_Mod_range_hashingENS_20_Default_ranged_hashELb1EE5_M_h2Ev @497
    _ZNKSt8__detail15_Hash_code_baseISsSt4pairIKSsyENS_10_Select1stESt4hashISsENS_18_Mod_range_hashingENS_20_Default_ranged_hashELb1EE10_M_extractEv @498
    _ZNKSt8__detail15_Hash_code_baseISsSt4pairIKSsyENS_10_Select1stESt4hashISsENS_18_Mod_range_hashingENS_20_Default_ranged_hashELb1EE12_M_hash_codeERS2_ @499
    _ZNKSt8__detail15_Hash_code_baseISsSt4pairIKSsyENS_10_Select1stESt4hashISsENS_18_Mod_range_hashingENS_20_Default_ranged_hashELb1EE13_M_store_codeEPNS_10_Hash_nodeIS3_Lb1EEEy @500
    _ZNKSt8__detail15_Hash_code_baseISsSt4pairIKSsyENS_10_Select1stESt4hashISsENS_18_Mod_range_hashingENS_20_Default_ranged_hashELb1EE15_M_bucket_indexEPKNS_10_Hash_nodeIS3_Lb1EEEy @501
    _ZNKSt8__detail15_Hash_code_baseISsSt4pairIKSsyENS_10_Select1stESt4hashISsENS_18_Mod_range_hashingENS_20_Default_ranged_hashELb1EE15_M_bucket_indexERS2_yy @502
    _ZNKSt8__detail15_Hash_code_baseISsSt4pairIKSsyENS_10_Select1stESt4hashISsENS_18_Mod_range_hashingENS_20_Default_ranged_hashELb1EE5_M_h1Ev @503
    _ZNKSt8__detail15_Hash_code_baseISsSt4pairIKSsyENS_10_Select1stESt4hashISsENS_18_Mod_range_hashingENS_20_Default_ranged_hashELb1EE5_M_h2Ev @504
    _ZNKSt8__detail15_Hash_code_baseIySt4pairIKyP18BaseComponentArrayENS_10_Select1stESt4hashIyENS_18_Mod_range_hashingENS_20_Default_ranged_hashELb0EE10_M_extractEv @505
    _ZNKSt8__detail15_Hash_code_baseIySt4pairIKyP18BaseComponentArrayENS_10_Select1stESt4hashIyENS_18_Mod_range_hashingENS_20_Default_ranged_hashELb0EE12_M_copy_codeEPNS_10_Hash_nodeIS5_Lb0EEEPKSD_ @506
    _ZNKSt8__detail15_Hash_code_baseIySt4pairIKyP18BaseComponentArrayENS_10_Select1stESt4hashIyENS_18_Mod_range_hashingENS_20_Default_ranged_hashELb0EE12_M_hash_codeERS2_ @507
    _ZNKSt8__detail15_Hash_code_baseIySt4pairIKyP18BaseComponentArrayENS_10_Select1stESt4hashIyENS_18_Mod_range_hashingENS_20_Default_ranged_hashELb0EE13_M_store_codeEPNS_10_Hash_nodeIS5_Lb0EEEy @508
    _ZNKSt8__detail15_Hash_code_baseIySt4pairIKyP18BaseComponentArrayENS_10_Select1stESt4hashIyENS_18_Mod_range_hashingENS_20_Default_ranged_hashELb0EE15_M_bucket_indexEPKNS_10_Hash_nodeIS5_Lb0EEEy @509
    _ZNKSt8__detail15_Hash_code_baseIySt4pairIKyP18BaseComponentArrayENS_10_Select1stESt4hashIyENS_18_Mod_range_hashingENS_20_Default_ranged_hashELb0EE15_M_bucket_indexERS2_yy @510
    _ZNKSt8__detail15_Hash_code_baseIySt4pairIKyP18BaseComponentArrayENS_10_Select1stESt4hashIyENS_18_Mod_range_hashingENS_20_Default_ranged_hashELb0EE5_M_h1Ev @511
    _ZNKSt8__detail15_Hash_code_baseIySt4pairIKyP18BaseComponentArrayENS_10_Select1stESt4hashIyENS_18_Mod_range_hashingENS_20_Default_ranged_hashELb0EE5_M_h2Ev @512
    _ZNKSt8__detail15_Hash_code_baseIySt4pairIKySt13unordered_mapIySt6vectorISt10shared_ptrIN3ocs11BaseMessageEESaIS8_EESt4hashIyESt8equal_toIyESaIS1_IS2_SA_EEEENS_10_Select1stESC_NS_18_Mod_range_hashingENS_20_Default_ranged_hashELb0EE10_M_extractEv @513
    _ZNKSt8__detail15_Hash_code_baseIySt4pairIKySt13unordered_mapIySt6vectorISt10shared_ptrIN3ocs11BaseMessageEESaIS8_EESt4hashIyESt8equal_toIyESaIS1_IS2_SA_EEEENS_10_Select1stESC_NS_18_Mod_range_hashingENS_20_Default_ranged_hashELb0EE12_M_hash_codeERS2_ @514
    _ZNKSt8__detail15_Hash_code_baseIySt4pairIKySt13unordered_mapIySt6vectorISt10shared_ptrIN3ocs11BaseMessageEESaIS8_EESt4hashIyESt8equal_toIyESaIS1_IS2_SA_EEEENS_10_Select1stESC_NS_18_Mod_range_hashingENS_20_Default_ranged_hashELb0EE13_M_store_codeEPNS_10_Hash_nodeISI_Lb0EEEy @515
    _ZNKSt8__detail15_Hash_code_baseIySt4pairIKySt13unordered_mapIySt6vectorISt10shared_ptrIN3ocs11BaseMessageEESaIS8_EESt4hashIyESt8equal_toIyESaIS1_IS2_SA_EEEENS_10_Select1stESC_NS_18_Mod_range_hashingENS_20_Default_ranged_hashELb0EE15_M_bucket_indexEPKNS_10_Hash_nodeISI_Lb0EEEy @516
    _ZNKSt8__detail15_Hash_code_baseIySt4pairIKySt13unordered_mapIySt6vectorISt10shared_ptrIN3ocs11BaseMessageEESaIS8_EESt4hashIyESt8equal_toIyESaIS1_IS2_SA_EEEENS_10_Select1stESC_NS_18_Mod_range_hashingENS_20_Default_ranged_hashELb0EE15_M_bucket_indexERS2_yy @517
    _ZNKSt8__detail15_Hash_code_baseIySt4pairIKySt13unordered_mapIySt6vectorISt10shared_ptrIN3ocs11BaseMessageEESaIS8_EESt4hashIyESt8equal_toIyESaIS1_IS2_SA_EEEENS_10_Select1stESC_NS_18_Mod_range_hashingENS_20_Default_ranged_hashELb0EE5_M_h1Ev @518
    _ZNKSt8__detail15_Hash_code_baseIySt4pairIKySt13unordered_mapIySt6vectorISt10shared_ptrIN3ocs11BaseMessageEESaIS8_EESt4hashIyESt8equal_toIyESaIS1_IS2_SA_EEEENS_10_Select1stESC_NS_18_Mod_range_hashingENS_20_Default_ranged_hashELb0EE5_M_h2Ev @519
    _ZNKSt8__detail15_Hash_code_baseIySt4pairIKyyENS_10_Select1stESt4hashIyENS_18_Mod_range_hashingENS_20_Default_ranged_hashELb0EE10_M_extractEv @520
    _ZNKSt8__detail15_Hash_code_baseIySt4pairIKyyENS_10_Select1stESt4hashIyENS_18_Mod_range_hashingENS_20_Default_ranged_hashELb0EE12_M_copy_codeEPNS_10_Hash_nodeIS3_Lb0EEEPKSB_ @521
    _ZNKSt8__detail15_Hash_code_baseIySt4pairIKyyENS_10_Select1stESt4hashIyENS_18_Mod_range_hashingENS_20_Default_ranged_hashELb0EE12_M_hash_codeERS2_ @522
    _ZNKSt8__detail15_Hash_code_baseIySt4pairIKyyENS_10_Select1stESt4hashIyENS_18_Mod_range_hashingENS_20_Default_ranged_hashELb0EE13_M_store_codeEPNS_10_Hash_nodeIS3_Lb0EEEy @523
    _ZNKSt8__detail15_Hash_code_baseIySt4pairIKyyENS_10_Select1stESt4hashIyENS_18_Mod_range_hashingENS_20_Default_ranged_hashELb0EE15_M_bucket_indexEPKNS_10_Hash_nodeIS3_Lb0EEEy @524
    _ZNKSt8__detail15_Hash_code_baseIySt4pairIKyyENS_10_Select1stESt4hashIyENS_18_Mod_range_hashingENS_20_Default_ranged_hashELb0EE15_M_bucket_indexERS2_yy @525
    _ZNKSt8__detail15_Hash_code_baseIySt4pairIKyyENS_10_Select1stESt4hashIyENS_18_Mod_range_hashingENS_20_Default_ranged_hashELb0EE5_M_h1Ev @526
    _ZNKSt8__detail15_Hash_code_baseIySt4pairIKyyENS_10_Select1stESt4hashIyENS_18_Mod_range_hashingENS_20_Default_ranged_hashELb0EE5_M_h2Ev @527
    _ZNKSt8__detail15_Hashtable_baseISsSt4pairIKSsN3ocs6ObjectEENS_10_Select1stESt8equal_toISsESt4hashISsENS_18_Mod_range_hashingENS_20_Default_ranged_hashENS_17_Hashtable_traitsILb1ELb0ELb1EEEE5_M_eqEv @528
    _ZNKSt8__detail15_Hashtable_baseISsSt4pairIKSsN3ocs6ObjectEENS_10_Select1stESt8equal_toISsESt4hashISsENS_18_Mod_range_hashingENS_20_Default_ranged_hashENS_17_Hashtable_traitsILb1ELb0ELb1EEEE9_M_equalsERS2_yPNS_10_Hash_nodeIS5_Lb1EEE @529
    _ZNKSt8__detail15_Hashtable_baseISsSt4pairIKSsyENS_10_Select1stESt8equal_toISsESt4hashISsENS_18_Mod_range_hashingENS_20_Default_ranged_hashENS_17_Hashtable_traitsILb1ELb0ELb1EEEE5_M_eqEv @530
    _ZNKSt8__detail15_Hashtable_baseISsSt4pairIKSsyENS_10_Select1stESt8equal_toISsESt4hashISsENS_18_Mod_range_hashingENS_20_Default_ranged_hashENS_17_Hashtable_traitsILb1ELb0ELb1EEEE9_M_equalsERS2_yPNS_10_Hash_nodeIS3_Lb1EEE @531
    _ZNKSt8__detail15_Hashtable_baseIySt4pairIKyP18BaseComponentArrayENS_10_Select1stESt8equal_toIyESt4hashIyENS_18_Mod_range_hashingENS_20_Default_ranged_hashENS_17_Hashtable_traitsILb0ELb0ELb1EEEE5_M_eqEv @532
    _ZNKSt8__detail15_Hashtable_baseIySt4pairIKyP18BaseComponentArrayENS_10_Select1stESt8equal_toIyESt4hashIyENS_18_Mod_range_hashingENS_20_Default_ranged_hashENS_17_Hashtable_traitsILb0ELb0ELb1EEEE9_M_equalsERS2_yPNS_10_Hash_nodeIS5_Lb0EEE @533
    _ZNKSt8__detail15_Hashtable_baseIySt4pairIKySt13unordered_mapIySt6vectorISt10shared_ptrIN3ocs11BaseMessageEESaIS8_EESt4hashIyESt8equal_toIyESaIS1_IS2_SA_EEEENS_10_Select1stESE_SC_NS_18_Mod_range_hashingENS_20_Default_ranged_hashENS_17_Hashtable_traitsILb0ELb0ELb1EEEE5_M_eqEv @534
    _ZNKSt8__detail15_Hashtable_baseIySt4pairIKySt13unordered_mapIySt6vectorISt10shared_ptrIN3ocs11BaseMessageEESaIS8_EESt4hashIyESt8equal_toIyESaIS1_IS2_SA_EEEENS_10_Select1stESE_SC_NS_18_Mod_range_hashingENS_20_Default_ranged_hashENS_17_Hashtable_traitsILb0ELb0ELb1EEEE9_M_equalsERS2_yPNS_10_Hash_nodeISI_Lb0EEE @535
    _ZNKSt8__detail15_Hashtable_baseIySt4pairIKyyENS_10_Select1stESt8equal_toIyESt4hashIyENS_18_Mod_range_hashingENS_20_Default_ranged_hashENS_17_Hashtable_traitsILb0ELb0ELb1EEEE5_M_eqEv @536
    _ZNKSt8__detail15_Hashtable_baseIySt4pairIKyyENS_10_Select1stESt8equal_toIyESt4hashIyENS_18_Mod_range_hashingENS_20_Default_ranged_hashENS_17_Hashtable_traitsILb0ELb0ELb1EEEE9_M_equalsERS2_yPNS_10_Hash_nodeIS3_Lb0EEE @537
    _ZNKSt8__detail18_Mod_range_hashingclEyy @538
    _ZNKSt8__detail20_Node_const_iteratorISt4pairIKySt6vectorISt10shared_ptrIN3ocs11BaseMessageEESaIS7_EEELb0ELb0EEdeEv @539
    _ZNKSt8__detail20_Node_const_iteratorISt4pairIKyyELb0ELb0EEdeEv @540
    _ZNKSt8__detail20_Prime_rehash_policy8_M_stateEv @541
    _ZNKSt8__detail9_Map_baseIySt4pairIKyP18BaseComponentArrayESaIS5_ENS_10_Select1stESt8equal_toIyESt4hashIyENS_18_Mod_range_hashingENS_20_Default_ranged_hashENS_20_Prime_rehash_policyENS_17_Hashtable_traitsILb0ELb0ELb1EEELb1EE2atERS2_ @542
    _ZNKSt8equal_toISsEclERKSsS2_ @543
    _ZNKSt8equal_toIyEclERKyS2_ @544
    _ZNKSt9_IdentityISsEclERKSs @545
    _ZNSaIN3ocs6ObjectEEC2Ev @546
    _ZNSaIN3ocs6ObjectEED2Ev @547
    _ZNSaINSt8__detail10_Hash_nodeISt4pairIKSsN3ocs6ObjectEELb1EEEEC2IS5_EERKSaIT_E @548
    _ZNSaINSt8__detail10_Hash_nodeISt4pairIKSsN3ocs6ObjectEELb1EEEED2Ev @549
    _ZNSaINSt8__detail10_Hash_nodeISt4pairIKSsyELb1EEEEC2IS3_EERKSaIT_E @550
    _ZNSaINSt8__detail10_Hash_nodeISt4pairIKSsyELb1EEEED2Ev @551
    _ZNSaINSt8__detail10_Hash_nodeISt4pairIKyP18BaseComponentArrayELb0EEEEC2ERKS7_ @552
    _ZNSaINSt8__detail10_Hash_nodeISt4pairIKyP18BaseComponentArrayELb0EEEEC2IS5_EERKSaIT_E @553
    _ZNSaINSt8__detail10_Hash_nodeISt4pairIKyP18BaseComponentArrayELb0EEEED2Ev @554
    _ZNSaINSt8__detail10_Hash_nodeISt4pairIKySt13unordered_mapIySt6vectorISt10shared_ptrIN3ocs11BaseMessageEESaIS8_EESt4hashIyESt8equal_toIyESaIS1_IS2_SA_EEEELb0EEEEC2ISI_EERKSaIT_E @555
    _ZNSaINSt8__detail10_Hash_nodeISt4pairIKySt13unordered_mapIySt6vectorISt10shared_ptrIN3ocs11BaseMessageEESaIS8_EESt4hashIyESt8equal_toIyESaIS1_IS2_SA_EEEELb0EEEED2Ev @556
    _ZNSaINSt8__detail10_Hash_nodeISt4pairIKySt6vectorISt10shared_ptrIN3ocs11BaseMessageEESaIS7_EEELb0EEEEC2ISA_EERKSaIT_E @557
    _ZNSaINSt8__detail10_Hash_nodeISt4pairIKySt6vectorISt10shared_ptrIN3ocs11BaseMessageEESaIS7_EEELb0EEEED2Ev @558
    _ZNSaINSt8__detail10_Hash_nodeISt4pairIKyyELb0EEEEC2ERKS5_ @559
    _ZNSaINSt8__detail10_Hash_nodeISt4pairIKyyELb0EEEEC2IS3_EERKSaIT_E @560
    _ZNSaINSt8__detail10_Hash_nodeISt4pairIKyyELb0EEEED2Ev @561
    _ZNSaIPNSt8__detail15_Hash_node_baseEEC1INS_10_Hash_nodeISt4pairIKSsN3ocs6ObjectEELb1EEEEERKSaIT_E @562
    _ZNSaIPNSt8__detail15_Hash_node_baseEEC1INS_10_Hash_nodeISt4pairIKSsyELb1EEEEERKSaIT_E @563
    _ZNSaIPNSt8__detail15_Hash_node_baseEEC1INS_10_Hash_nodeISt4pairIKyP18BaseComponentArrayELb0EEEEERKSaIT_E @564
    _ZNSaIPNSt8__detail15_Hash_node_baseEEC1INS_10_Hash_nodeISt4pairIKySt13unordered_mapIySt6vectorISt10shared_ptrIN3ocs11BaseMessageEESaISC_EESt4hashIyESt8equal_toIyESaIS5_IS6_SE_EEEELb0EEEEERKSaIT_E @565
    _ZNSaIPNSt8__detail15_Hash_node_baseEEC1INS_10_Hash_nodeISt4pairIKySt6vectorISt10shared_ptrIN3ocs11BaseMessageEESaISB_EEELb0EEEEERKSaIT_E @566
    _ZNSaIPNSt8__detail15_Hash_node_baseEEC1INS_10_Hash_nodeISt4pairIKyyELb0EEEEERKSaIT_E @567
    _ZNSaIPNSt8__detail15_Hash_node_baseEED1Ev @568
    _ZNSaIPyEC1IyEERKSaIT_E @569
    _ZNSaIPyED1Ev @570
    _ZNSaISsEC1ERKS_ @571
    _ZNSaISsEC1Ev @572
    _ZNSaISsEC2ERKS_ @573
    _ZNSaISsEC2Ev @574
    _ZNSaISsED1Ev @575
    _ZNSaISsED2Ev @576
    _ZNSaISt10_List_nodeISsEEC2Ev @577
    _ZNSaISt10_List_nodeISsEED2Ev @578
    _ZNSaISt10_List_nodeISt10shared_ptrIN3ocs6SystemEEEEC2Ev @579
    _ZNSaISt10_List_nodeISt10shared_ptrIN3ocs6SystemEEEED2Ev @580
    _ZNSaISt10shared_ptrIN3ocs11BaseMessageEEED2Ev @581
    _ZNSaISt13_Rb_tree_nodeISsEEC1ISsEERKSaIT_E @582
    _ZNSaISt13_Rb_tree_nodeISsEEC2ERKS1_ @583
    _ZNSaISt13_Rb_tree_nodeISsEED1Ev @584
    _ZNSaISt13_Rb_tree_nodeISsEED2Ev @585
    _ZNSaISt4pairIKSsN3ocs6ObjectEEEC1Ev @586
    _ZNSaISt4pairIKSsN3ocs6ObjectEEED1Ev @587
    _ZNSaISt4pairIKSsyEEC1Ev @588
    _ZNSaISt4pairIKSsyEED1Ev @589
    _ZNSaISt4pairIKyP18BaseComponentArrayEEC1Ev @590
    _ZNSaISt4pairIKyP18BaseComponentArrayEED1Ev @591
    _ZNSaISt4pairIKySt13unordered_mapIySt6vectorISt10shared_ptrIN3ocs11BaseMessageEESaIS6_EESt4hashIyESt8equal_toIyESaIS_IS0_S8_EEEEEC1Ev @592
    _ZNSaISt4pairIKySt13unordered_mapIySt6vectorISt10shared_ptrIN3ocs11BaseMessageEESaIS6_EESt4hashIyESt8equal_toIyESaIS_IS0_S8_EEEEED1Ev @593
    _ZNSaISt4pairIKySt6vectorISt10shared_ptrIN3ocs11BaseMessageEESaIS5_EEEEC1Ev @594
    _ZNSaISt4pairIKySt6vectorISt10shared_ptrIN3ocs11BaseMessageEESaIS5_EEEED1Ev @595
    _ZNSaISt4pairIKyyEEC1Ev @596
    _ZNSaISt4pairIKyyEED1Ev @597
    _ZNSaISt4pairIySsEEC1ERKS1_ @598
    _ZNSaISt4pairIySsEEC2ERKS1_ @599
    _ZNSaISt4pairIySsEED1Ev @600
    _ZNSaISt4pairIySsEED2Ev @601
    _ZNSaISt6vectorISsSaISsEEEC2Ev @602
    _ZNSaISt6vectorISsSaISsEEED2Ev @603
    _ZNSaIiEC1Ev @604
    _ZNSaIiEC2ERKS_ @605
    _ZNSaIiED1Ev @606
    _ZNSaIiED2Ev @607
    _ZNSaImEC2ERKS_ @608
    _ZNSaImEC2Ev @609
    _ZNSaImED2Ev @610
    _ZNSaIyEC2ERKS_ @611
    _ZNSaIyEC2Ev @612
    _ZNSaIyED2Ev @613
    _ZNSt10_Hash_impl4hashEPKvyy @614
    _ZNSt10_HashtableISsSt4pairIKSsN3ocs6ObjectEESaIS4_ENSt8__detail10_Select1stESt8equal_toISsESt4hashISsENS6_18_Mod_range_hashingENS6_20_Default_ranged_hashENS6_20_Prime_rehash_policyENS6_17_Hashtable_traitsILb1ELb0ELb1EEEE13_M_rehash_auxEySt17integral_constantIbLb1EE @615
    _ZNSt10_HashtableISsSt4pairIKSsN3ocs6ObjectEESaIS4_ENSt8__detail10_Select1stESt8equal_toISsESt4hashISsENS6_18_Mod_range_hashingENS6_20_Default_ranged_hashENS6_20_Prime_rehash_policyENS6_17_Hashtable_traitsILb1ELb0ELb1EEEE15_M_before_beginEv @616
    _ZNSt10_HashtableISsSt4pairIKSsN3ocs6ObjectEESaIS4_ENSt8__detail10_Select1stESt8equal_toISsESt4hashISsENS6_18_Mod_range_hashingENS6_20_Default_ranged_hashENS6_20_Prime_rehash_policyENS6_17_Hashtable_traitsILb1ELb0ELb1EEEE16_M_allocate_nodeIIRKSt21piecewise_construct_tSt5tupleIIRS1_EESM_IIEEEEEPNS6_10_Hash_nodeIS4_Lb1EEEDpOT_ @617
    _ZNSt10_HashtableISsSt4pairIKSsN3ocs6ObjectEESaIS4_ENSt8__detail10_Select1stESt8equal_toISsESt4hashISsENS6_18_Mod_range_hashingENS6_20_Default_ranged_hashENS6_20_Prime_rehash_policyENS6_17_Hashtable_traitsILb1ELb0ELb1EEEE17_M_node_allocatorEv @618
    _ZNSt10_HashtableISsSt4pairIKSsN3ocs6ObjectEESaIS4_ENSt8__detail10_Select1stESt8equal_toISsESt4hashISsENS6_18_Mod_range_hashingENS6_20_Default_ranged_hashENS6_20_Prime_rehash_policyENS6_17_Hashtable_traitsILb1ELb0ELb1EEEE18_M_deallocate_nodeEPNS6_10_Hash_nodeIS4_Lb1EEE @619
    _ZNSt10_HashtableISsSt4pairIKSsN3ocs6ObjectEESaIS4_ENSt8__detail10_Select1stESt8equal_toISsESt4hashISsENS6_18_Mod_range_hashingENS6_20_Default_ranged_hashENS6_20_Prime_rehash_policyENS6_17_Hashtable_traitsILb1ELb0ELb1EEEE19_M_allocate_bucketsEy @620
    _ZNSt10_HashtableISsSt4pairIKSsN3ocs6ObjectEESaIS4_ENSt8__detail10_Select1stESt8equal_toISsESt4hashISsENS6_18_Mod_range_hashingENS6_20_Default_ranged_hashENS6_20_Prime_rehash_policyENS6_17_Hashtable_traitsILb1ELb0ELb1EEEE19_M_deallocate_nodesEPNS6_10_Hash_nodeIS4_Lb1EEE @621
    _ZNSt10_HashtableISsSt4pairIKSsN3ocs6ObjectEESaIS4_ENSt8__detail10_Select1stESt8equal_toISsESt4hashISsENS6_18_Mod_range_hashingENS6_20_Default_ranged_hashENS6_20_Prime_rehash_policyENS6_17_Hashtable_traitsILb1ELb0ELb1EEEE21_M_deallocate_bucketsEPPNS6_15_Hash_node_baseEy @622
    _ZNSt10_HashtableISsSt4pairIKSsN3ocs6ObjectEESaIS4_ENSt8__detail10_Select1stESt8equal_toISsESt4hashISsENS6_18_Mod_range_hashingENS6_20_Default_ranged_hashENS6_20_Prime_rehash_policyENS6_17_Hashtable_traitsILb1ELb0ELb1EEEE21_M_insert_unique_nodeEyyPNS6_10_Hash_nodeIS4_Lb1EEE @623
    _ZNSt10_HashtableISsSt4pairIKSsN3ocs6ObjectEESaIS4_ENSt8__detail10_Select1stESt8equal_toISsESt4hashISsENS6_18_Mod_range_hashingENS6_20_Default_ranged_hashENS6_20_Prime_rehash_policyENS6_17_Hashtable_traitsILb1ELb0ELb1EEEE22_M_insert_bucket_beginEyPNS6_10_Hash_nodeIS4_Lb1EEE @624
    _ZNSt10_HashtableISsSt4pairIKSsN3ocs6ObjectEESaIS4_ENSt8__detail10_Select1stESt8equal_toISsESt4hashISsENS6_18_Mod_range_hashingENS6_20_Default_ranged_hashENS6_20_Prime_rehash_policyENS6_17_Hashtable_traitsILb1ELb0ELb1EEEE5clearEv @625
    _ZNSt10_HashtableISsSt4pairIKSsN3ocs6ObjectEESaIS4_ENSt8__detail10_Select1stESt8equal_toISsESt4hashISsENS6_18_Mod_range_hashingENS6_20_Default_ranged_hashENS6_20_Prime_rehash_policyENS6_17_Hashtable_traitsILb1ELb0ELb1EEEE9_M_rehashEyRKy @626
    _ZNSt10_HashtableISsSt4pairIKSsN3ocs6ObjectEESaIS4_ENSt8__detail10_Select1stESt8equal_toISsESt4hashISsENS6_18_Mod_range_hashingENS6_20_Default_ranged_hashENS6_20_Prime_rehash_policyENS6_17_Hashtable_traitsILb1ELb0ELb1EEEEC1EyRKSB_RKS9_RKS5_ @627
    _ZNSt10_HashtableISsSt4pairIKSsN3ocs6ObjectEESaIS4_ENSt8__detail10_Select1stESt8equal_toISsESt4hashISsENS6_18_Mod_range_hashingENS6_20_Default_ranged_hashENS6_20_Prime_rehash_policyENS6_17_Hashtable_traitsILb1ELb0ELb1EEEEC1EyRKSB_RKSC_RKSD_RKS9_RKS7_RKS5_ @628
    _ZNSt10_HashtableISsSt4pairIKSsN3ocs6ObjectEESaIS4_ENSt8__detail10_Select1stESt8equal_toISsESt4hashISsENS6_18_Mod_range_hashingENS6_20_Default_ranged_hashENS6_20_Prime_rehash_policyENS6_17_Hashtable_traitsILb1ELb0ELb1EEEED1Ev @629
    _ZNSt10_HashtableISsSt4pairIKSsyESaIS2_ENSt8__detail10_Select1stESt8equal_toISsESt4hashISsENS4_18_Mod_range_hashingENS4_20_Default_ranged_hashENS4_20_Prime_rehash_policyENS4_17_Hashtable_traitsILb1ELb0ELb1EEEE13_M_rehash_auxEySt17integral_constantIbLb1EE @630
    _ZNSt10_HashtableISsSt4pairIKSsyESaIS2_ENSt8__detail10_Select1stESt8equal_toISsESt4hashISsENS4_18_Mod_range_hashingENS4_20_Default_ranged_hashENS4_20_Prime_rehash_policyENS4_17_Hashtable_traitsILb1ELb0ELb1EEEE15_M_before_beginEv @631
    _ZNSt10_HashtableISsSt4pairIKSsyESaIS2_ENSt8__detail10_Select1stESt8equal_toISsESt4hashISsENS4_18_Mod_range_hashingENS4_20_Default_ranged_hashENS4_20_Prime_rehash_policyENS4_17_Hashtable_traitsILb1ELb0ELb1EEEE16_M_allocate_nodeIIRKSt21piecewise_construct_tSt5tupleIIRS1_EESK_IIEEEEEPNS4_10_Hash_nodeIS2_Lb1EEEDpOT_ @632
    _ZNSt10_HashtableISsSt4pairIKSsyESaIS2_ENSt8__detail10_Select1stESt8equal_toISsESt4hashISsENS4_18_Mod_range_hashingENS4_20_Default_ranged_hashENS4_20_Prime_rehash_policyENS4_17_Hashtable_traitsILb1ELb0ELb1EEEE17_M_node_allocatorEv @633
    _ZNSt10_HashtableISsSt4pairIKSsyESaIS2_ENSt8__detail10_Select1stESt8equal_toISsESt4hashISsENS4_18_Mod_range_hashingENS4_20_Default_ranged_hashENS4_20_Prime_rehash_policyENS4_17_Hashtable_traitsILb1ELb0ELb1EEEE18_M_deallocate_nodeEPNS4_10_Hash_nodeIS2_Lb1EEE @634
    _ZNSt10_HashtableISsSt4pairIKSsyESaIS2_ENSt8__detail10_Select1stESt8equal_toISsESt4hashISsENS4_18_Mod_range_hashingENS4_20_Default_ranged_hashENS4_20_Prime_rehash_policyENS4_17_Hashtable_traitsILb1ELb0ELb1EEEE19_M_allocate_bucketsEy @635
    _ZNSt10_HashtableISsSt4pairIKSsyESaIS2_ENSt8__detail10_Select1stESt8equal_toISsESt4hashISsENS4_18_Mod_range_hashingENS4_20_Default_ranged_hashENS4_20_Prime_rehash_policyENS4_17_Hashtable_traitsILb1ELb0ELb1EEEE19_M_deallocate_nodesEPNS4_10_Hash_nodeIS2_Lb1EEE @636
    _ZNSt10_HashtableISsSt4pairIKSsyESaIS2_ENSt8__detail10_Select1stESt8equal_toISsESt4hashISsENS4_18_Mod_range_hashingENS4_20_Default_ranged_hashENS4_20_Prime_rehash_policyENS4_17_Hashtable_traitsILb1ELb0ELb1EEEE21_M_deallocate_bucketsEPPNS4_15_Hash_node_baseEy @637
    _ZNSt10_HashtableISsSt4pairIKSsyESaIS2_ENSt8__detail10_Select1stESt8equal_toISsESt4hashISsENS4_18_Mod_range_hashingENS4_20_Default_ranged_hashENS4_20_Prime_rehash_policyENS4_17_Hashtable_traitsILb1ELb0ELb1EEEE21_M_insert_unique_nodeEyyPNS4_10_Hash_nodeIS2_Lb1EEE @638
    _ZNSt10_HashtableISsSt4pairIKSsyESaIS2_ENSt8__detail10_Select1stESt8equal_toISsESt4hashISsENS4_18_Mod_range_hashingENS4_20_Default_ranged_hashENS4_20_Prime_rehash_policyENS4_17_Hashtable_traitsILb1ELb0ELb1EEEE22_M_insert_bucket_beginEyPNS4_10_Hash_nodeIS2_Lb1EEE @639
    _ZNSt10_HashtableISsSt4pairIKSsyESaIS2_ENSt8__detail10_Select1stESt8equal_toISsESt4hashISsENS4_18_Mod_range_hashingENS4_20_Default_ranged_hashENS4_20_Prime_rehash_policyENS4_17_Hashtable_traitsILb1ELb0ELb1EEEE3endEv @640
    _ZNSt10_HashtableISsSt4pairIKSsyESaIS2_ENSt8__detail10_Select1stESt8equal_toISsESt4hashISsENS4_18_Mod_range_hashingENS4_20_Default_ranged_hashENS4_20_Prime_rehash_policyENS4_17_Hashtable_traitsILb1ELb0ELb1EEEE4findERS1_ @641
    _ZNSt10_HashtableISsSt4pairIKSsyESaIS2_ENSt8__detail10_Select1stESt8equal_toISsESt4hashISsENS4_18_Mod_range_hashingENS4_20_Default_ranged_hashENS4_20_Prime_rehash_policyENS4_17_Hashtable_traitsILb1ELb0ELb1EEEE5clearEv @642
    _ZNSt10_HashtableISsSt4pairIKSsyESaIS2_ENSt8__detail10_Select1stESt8equal_toISsESt4hashISsENS4_18_Mod_range_hashingENS4_20_Default_ranged_hashENS4_20_Prime_rehash_policyENS4_17_Hashtable_traitsILb1ELb0ELb1EEEE9_M_rehashEyRKy @643
    _ZNSt10_HashtableISsSt4pairIKSsyESaIS2_ENSt8__detail10_Select1stESt8equal_toISsESt4hashISsENS4_18_Mod_range_hashingENS4_20_Default_ranged_hashENS4_20_Prime_rehash_policyENS4_17_Hashtable_traitsILb1ELb0ELb1EEEEC1EyRKS9_RKS7_RKS3_ @644
    _ZNSt10_HashtableISsSt4pairIKSsyESaIS2_ENSt8__detail10_Select1stESt8equal_toISsESt4hashISsENS4_18_Mod_range_hashingENS4_20_Default_ranged_hashENS4_20_Prime_rehash_policyENS4_17_Hashtable_traitsILb1ELb0ELb1EEEEC1EyRKS9_RKSA_RKSB_RKS7_RKS5_RKS3_ @645
    _ZNSt10_HashtableISsSt4pairIKSsyESaIS2_ENSt8__detail10_Select1stESt8equal_toISsESt4hashISsENS4_18_Mod_range_hashingENS4_20_Default_ranged_hashENS4_20_Prime_rehash_policyENS4_17_Hashtable_traitsILb1ELb0ELb1EEEED1Ev @646
    _ZNSt10_HashtableIySt4pairIKyP18BaseComponentArrayESaIS4_ENSt8__detail10_Select1stESt8equal_toIyESt4hashIyENS6_18_Mod_range_hashingENS6_20_Default_ranged_hashENS6_20_Prime_rehash_policyENS6_17_Hashtable_traitsILb0ELb0ELb1EEEE13_M_rehash_auxEySt17integral_constantIbLb1EE @647
    _ZNSt10_HashtableIySt4pairIKyP18BaseComponentArrayESaIS4_ENSt8__detail10_Select1stESt8equal_toIyESt4hashIyENS6_18_Mod_range_hashingENS6_20_Default_ranged_hashENS6_20_Prime_rehash_policyENS6_17_Hashtable_traitsILb0ELb0ELb1EEEE15_M_before_beginEv @648
    _ZNSt10_HashtableIySt4pairIKyP18BaseComponentArrayESaIS4_ENSt8__detail10_Select1stESt8equal_toIyESt4hashIyENS6_18_Mod_range_hashingENS6_20_Default_ranged_hashENS6_20_Prime_rehash_policyENS6_17_Hashtable_traitsILb0ELb0ELb1EEEE16_M_allocate_nodeIIRKS4_EEEPNS6_10_Hash_nodeIS4_Lb0EEEDpOT_ @649
    _ZNSt10_HashtableIySt4pairIKyP18BaseComponentArrayESaIS4_ENSt8__detail10_Select1stESt8equal_toIyESt4hashIyENS6_18_Mod_range_hashingENS6_20_Default_ranged_hashENS6_20_Prime_rehash_policyENS6_17_Hashtable_traitsILb0ELb0ELb1EEEE16_M_allocate_nodeIIRKSt21piecewise_construct_tSt5tupleIIRS1_EESM_IIEEEEEPNS6_10_Hash_nodeIS4_Lb0EEEDpOT_ @650
    _ZNSt10_HashtableIySt4pairIKyP18BaseComponentArrayESaIS4_ENSt8__detail10_Select1stESt8equal_toIyESt4hashIyENS6_18_Mod_range_hashingENS6_20_Default_ranged_hashENS6_20_Prime_rehash_policyENS6_17_Hashtable_traitsILb0ELb0ELb1EEEE17_M_node_allocatorEv @651
    _ZNSt10_HashtableIySt4pairIKyP18BaseComponentArrayESaIS4_ENSt8__detail10_Select1stESt8equal_toIyESt4hashIyENS6_18_Mod_range_hashingENS6_20_Default_ranged_hashENS6_20_Prime_rehash_policyENS6_17_Hashtable_traitsILb0ELb0ELb1EEEE18_M_deallocate_nodeEPNS6_10_Hash_nodeIS4_Lb0EEE @652
    _ZNSt10_HashtableIySt4pairIKyP18BaseComponentArrayESaIS4_ENSt8__detail10_Select1stESt8equal_toIyESt4hashIyENS6_18_Mod_range_hashingENS6_20_Default_ranged_hashENS6_20_Prime_rehash_policyENS6_17_Hashtable_traitsILb0ELb0ELb1EEEE19_M_allocate_bucketsEy @653
    _ZNSt10_HashtableIySt4pairIKyP18BaseComponentArrayESaIS4_ENSt8__detail10_Select1stESt8equal_toIyESt4hashIyENS6_18_Mod_range_hashingENS6_20_Default_ranged_hashENS6_20_Prime_rehash_policyENS6_17_Hashtable_traitsILb0ELb0ELb1EEEE19_M_deallocate_nodesEPNS6_10_Hash_nodeIS4_Lb0EEE @654
    _ZNSt10_HashtableIySt4pairIKyP18BaseComponentArrayESaIS4_ENSt8__detail10_Select1stESt8equal_toIyESt4hashIyENS6_18_Mod_range_hashingENS6_20_Default_ranged_hashENS6_20_Prime_rehash_policyENS6_17_Hashtable_traitsILb0ELb0ELb1EEEE21_M_deallocate_bucketsEPPNS6_15_Hash_node_baseEy @655
    _ZNSt10_HashtableIySt4pairIKyP18BaseComponentArrayESaIS4_ENSt8__detail10_Select1stESt8equal_toIyESt4hashIyENS6_18_Mod_range_hashingENS6_20_Default_ranged_hashENS6_20_Prime_rehash_policyENS6_17_Hashtable_traitsILb0ELb0ELb1EEEE21_M_insert_unique_nodeEyyPNS6_10_Hash_nodeIS4_Lb0EEE @656
    _ZNSt10_HashtableIySt4pairIKyP18BaseComponentArrayESaIS4_ENSt8__detail10_Select1stESt8equal_toIyESt4hashIyENS6_18_Mod_range_hashingENS6_20_Default_ranged_hashENS6_20_Prime_rehash_policyENS6_17_Hashtable_traitsILb0ELb0ELb1EEEE22_M_insert_bucket_beginEyPNS6_10_Hash_nodeIS4_Lb0EEE @657
    _ZNSt10_HashtableIySt4pairIKyP18BaseComponentArrayESaIS4_ENSt8__detail10_Select1stESt8equal_toIyESt4hashIyENS6_18_Mod_range_hashingENS6_20_Default_ranged_hashENS6_20_Prime_rehash_policyENS6_17_Hashtable_traitsILb0ELb0ELb1EEEE3endEv @658
    _ZNSt10_HashtableIySt4pairIKyP18BaseComponentArrayESaIS4_ENSt8__detail10_Select1stESt8equal_toIyESt4hashIyENS6_18_Mod_range_hashingENS6_20_Default_ranged_hashENS6_20_Prime_rehash_policyENS6_17_Hashtable_traitsILb0ELb0ELb1EEEE4findERS1_ @659
    _ZNSt10_HashtableIySt4pairIKyP18BaseComponentArrayESaIS4_ENSt8__detail10_Select1stESt8equal_toIyESt4hashIyENS6_18_Mod_range_hashingENS6_20_Default_ranged_hashENS6_20_Prime_rehash_policyENS6_17_Hashtable_traitsILb0ELb0ELb1EEEE4swapERSH_ @660
    _ZNSt10_HashtableIySt4pairIKyP18BaseComponentArrayESaIS4_ENSt8__detail10_Select1stESt8equal_toIyESt4hashIyENS6_18_Mod_range_hashingENS6_20_Default_ranged_hashENS6_20_Prime_rehash_policyENS6_17_Hashtable_traitsILb0ELb0ELb1EEEE5beginEv @661
    _ZNSt10_HashtableIySt4pairIKyP18BaseComponentArrayESaIS4_ENSt8__detail10_Select1stESt8equal_toIyESt4hashIyENS6_18_Mod_range_hashingENS6_20_Default_ranged_hashENS6_20_Prime_rehash_policyENS6_17_Hashtable_traitsILb0ELb0ELb1EEEE5clearEv @662
    _ZNSt10_HashtableIySt4pairIKyP18BaseComponentArrayESaIS4_ENSt8__detail10_Select1stESt8equal_toIyESt4hashIyENS6_18_Mod_range_hashingENS6_20_Default_ranged_hashENS6_20_Prime_rehash_policyENS6_17_Hashtable_traitsILb0ELb0ELb1EEEE9_M_rehashEyRS1_ @663
    _ZNSt10_HashtableIySt4pairIKyP18BaseComponentArrayESaIS4_ENSt8__detail10_Select1stESt8equal_toIyESt4hashIyENS6_18_Mod_range_hashingENS6_20_Default_ranged_hashENS6_20_Prime_rehash_policyENS6_17_Hashtable_traitsILb0ELb0ELb1EEEEC1ERKSH_ @664
    _ZNSt10_HashtableIySt4pairIKyP18BaseComponentArrayESaIS4_ENSt8__detail10_Select1stESt8equal_toIyESt4hashIyENS6_18_Mod_range_hashingENS6_20_Default_ranged_hashENS6_20_Prime_rehash_policyENS6_17_Hashtable_traitsILb0ELb0ELb1EEEEC1EyRKSB_RKS9_RKS5_ @665
    _ZNSt10_HashtableIySt4pairIKyP18BaseComponentArrayESaIS4_ENSt8__detail10_Select1stESt8equal_toIyESt4hashIyENS6_18_Mod_range_hashingENS6_20_Default_ranged_hashENS6_20_Prime_rehash_policyENS6_17_Hashtable_traitsILb0ELb0ELb1EEEEC1EyRKSB_RKSC_RKSD_RKS9_RKS7_RKS5_ @666
    _ZNSt10_HashtableIySt4pairIKyP18BaseComponentArrayESaIS4_ENSt8__detail10_Select1stESt8equal_toIyESt4hashIyENS6_18_Mod_range_hashingENS6_20_Default_ranged_hashENS6_20_Prime_rehash_policyENS6_17_Hashtable_traitsILb0ELb0ELb1EEEED1Ev @667
    _ZNSt10_HashtableIySt4pairIKyP18BaseComponentArrayESaIS4_ENSt8__detail10_Select1stESt8equal_toIyESt4hashIyENS6_18_Mod_range_hashingENS6_20_Default_ranged_hashENS6_20_Prime_rehash_policyENS6_17_Hashtable_traitsILb0ELb0ELb1EEEEaSERKSH_ @668
    _ZNSt10_HashtableIySt4pairIKySt13unordered_mapIySt6vectorISt10shared_ptrIN3ocs11BaseMessageEESaIS7_EESt4hashIyESt8equal_toIyESaIS0_IS1_S9_EEEESaISH_ENSt8__detail10_Select1stESD_SB_NSJ_18_Mod_range_hashingENSJ_20_Default_ranged_hashENSJ_20_Prime_rehash_policyENSJ_17_Hashtable_traitsILb0ELb0ELb1EEEE13_M_rehash_auxEySt17integral_constantIbLb1EE @669
    _ZNSt10_HashtableIySt4pairIKySt13unordered_mapIySt6vectorISt10shared_ptrIN3ocs11BaseMessageEESaIS7_EESt4hashIyESt8equal_toIyESaIS0_IS1_S9_EEEESaISH_ENSt8__detail10_Select1stESD_SB_NSJ_18_Mod_range_hashingENSJ_20_Default_ranged_hashENSJ_20_Prime_rehash_policyENSJ_17_Hashtable_traitsILb0ELb0ELb1EEEE15_M_before_beginEv @670
    _ZNSt10_HashtableIySt4pairIKySt13unordered_mapIySt6vectorISt10shared_ptrIN3ocs11BaseMessageEESaIS7_EESt4hashIyESt8equal_toIyESaIS0_IS1_S9_EEEESaISH_ENSt8__detail10_Select1stESD_SB_NSJ_18_Mod_range_hashingENSJ_20_Default_ranged_hashENSJ_20_Prime_rehash_policyENSJ_17_Hashtable_traitsILb0ELb0ELb1EEEE16_M_allocate_nodeIIRKSt21piecewise_construct_tSt5tupleIIOyEESV_IIEEEEEPNSJ_10_Hash_nodeISH_Lb0EEEDpOT_ @671
    _ZNSt10_HashtableIySt4pairIKySt13unordered_mapIySt6vectorISt10shared_ptrIN3ocs11BaseMessageEESaIS7_EESt4hashIyESt8equal_toIyESaIS0_IS1_S9_EEEESaISH_ENSt8__detail10_Select1stESD_SB_NSJ_18_Mod_range_hashingENSJ_20_Default_ranged_hashENSJ_20_Prime_rehash_policyENSJ_17_Hashtable_traitsILb0ELb0ELb1EEEE16_M_allocate_nodeIIRKSt21piecewise_construct_tSt5tupleIIRS1_EESV_IIEEEEEPNSJ_10_Hash_nodeISH_Lb0EEEDpOT_ @672
    _ZNSt10_HashtableIySt4pairIKySt13unordered_mapIySt6vectorISt10shared_ptrIN3ocs11BaseMessageEESaIS7_EESt4hashIyESt8equal_toIyESaIS0_IS1_S9_EEEESaISH_ENSt8__detail10_Select1stESD_SB_NSJ_18_Mod_range_hashingENSJ_20_Default_ranged_hashENSJ_20_Prime_rehash_policyENSJ_17_Hashtable_traitsILb0ELb0ELb1EEEE17_M_node_allocatorEv @673
    _ZNSt10_HashtableIySt4pairIKySt13unordered_mapIySt6vectorISt10shared_ptrIN3ocs11BaseMessageEESaIS7_EESt4hashIyESt8equal_toIyESaIS0_IS1_S9_EEEESaISH_ENSt8__detail10_Select1stESD_SB_NSJ_18_Mod_range_hashingENSJ_20_Default_ranged_hashENSJ_20_Prime_rehash_policyENSJ_17_Hashtable_traitsILb0ELb0ELb1EEEE18_M_deallocate_nodeEPNSJ_10_Hash_nodeISH_Lb0EEE @674
    _ZNSt10_HashtableIySt4pairIKySt13unordered_mapIySt6vectorISt10shared_ptrIN3ocs11BaseMessageEESaIS7_EESt4hashIyESt8equal_toIyESaIS0_IS1_S9_EEEESaISH_ENSt8__detail10_Select1stESD_SB_NSJ_18_Mod_range_hashingENSJ_20_Default_ranged_hashENSJ_20_Prime_rehash_policyENSJ_17_Hashtable_traitsILb0ELb0ELb1EEEE19_M_allocate_bucketsEy @675
    _ZNSt10_HashtableIySt4pairIKySt13unordered_mapIySt6vectorISt10shared_ptrIN3ocs11BaseMessageEESaIS7_EESt4hashIyESt8equal_toIyESaIS0_IS1_S9_EEEESaISH_ENSt8__detail10_Select1stESD_SB_NSJ_18_Mod_range_hashingENSJ_20_Default_ranged_hashENSJ_20_Prime_rehash_policyENSJ_17_Hashtable_traitsILb0ELb0ELb1EEEE19_M_deallocate_nodesEPNSJ_10_Hash_nodeISH_Lb0EEE @676
    _ZNSt10_HashtableIySt4pairIKySt13unordered_mapIySt6vectorISt10shared_ptrIN3ocs11BaseMessageEESaIS7_EESt4hashIyESt8equal_toIyESaIS0_IS1_S9_EEEESaISH_ENSt8__detail10_Select1stESD_SB_NSJ_18_Mod_range_hashingENSJ_20_Default_ranged_hashENSJ_20_Prime_rehash_policyENSJ_17_Hashtable_traitsILb0ELb0ELb1EEEE21_M_deallocate_bucketsEPPNSJ_15_Hash_node_baseEy @677
    _ZNSt10_HashtableIySt4pairIKySt13unordered_mapIySt6vectorISt10shared_ptrIN3ocs11BaseMessageEESaIS7_EESt4hashIyESt8equal_toIyESaIS0_IS1_S9_EEEESaISH_ENSt8__detail10_Select1stESD_SB_NSJ_18_Mod_range_hashingENSJ_20_Default_ranged_hashENSJ_20_Prime_rehash_policyENSJ_17_Hashtable_traitsILb0ELb0ELb1EEEE21_M_insert_unique_nodeEyyPNSJ_10_Hash_nodeISH_Lb0EEE @678
    _ZNSt10_HashtableIySt4pairIKySt13unordered_mapIySt6vectorISt10shared_ptrIN3ocs11BaseMessageEESaIS7_EESt4hashIyESt8equal_toIyESaIS0_IS1_S9_EEEESaISH_ENSt8__detail10_Select1stESD_SB_NSJ_18_Mod_range_hashingENSJ_20_Default_ranged_hashENSJ_20_Prime_rehash_policyENSJ_17_Hashtable_traitsILb0ELb0ELb1EEEE22_M_insert_bucket_beginEyPNSJ_10_Hash_nodeISH_Lb0EEE @679
    _ZNSt10_HashtableIySt4pairIKySt13unordered_mapIySt6vectorISt10shared_ptrIN3ocs11BaseMessageEESaIS7_EESt4hashIyESt8equal_toIyESaIS0_IS1_S9_EEEESaISH_ENSt8__detail10_Select1stESD_SB_NSJ_18_Mod_range_hashingENSJ_20_Default_ranged_hashENSJ_20_Prime_rehash_policyENSJ_17_Hashtable_traitsILb0ELb0ELb1EEEE5clearEv @680
    _ZNSt10_HashtableIySt4pairIKySt13unordered_mapIySt6vectorISt10shared_ptrIN3ocs11BaseMessageEESaIS7_EESt4hashIyESt8equal_toIyESaIS0_IS1_S9_EEEESaISH_ENSt8__detail10_Select1stESD_SB_NSJ_18_Mod_range_hashingENSJ_20_Default_ranged_hashENSJ_20_Prime_rehash_policyENSJ_17_Hashtable_traitsILb0ELb0ELb1EEEE9_M_rehashEyRS1_ @681
    _ZNSt10_HashtableIySt4pairIKySt13unordered_mapIySt6vectorISt10shared_ptrIN3ocs11BaseMessageEESaIS7_EESt4hashIyESt8equal_toIyESaIS0_IS1_S9_EEEESaISH_ENSt8__detail10_Select1stESD_SB_NSJ_18_Mod_range_hashingENSJ_20_Default_ranged_hashENSJ_20_Prime_rehash_policyENSJ_17_Hashtable_traitsILb0ELb0ELb1EEEEC1EyRKSB_RKSD_RKSI_ @682
    _ZNSt10_HashtableIySt4pairIKySt13unordered_mapIySt6vectorISt10shared_ptrIN3ocs11BaseMessageEESaIS7_EESt4hashIyESt8equal_toIyESaIS0_IS1_S9_EEEESaISH_ENSt8__detail10_Select1stESD_SB_NSJ_18_Mod_range_hashingENSJ_20_Default_ranged_hashENSJ_20_Prime_rehash_policyENSJ_17_Hashtable_traitsILb0ELb0ELb1EEEEC1EyRKSB_RKSL_RKSM_RKSD_RKSK_RKSI_ @683
    _ZNSt10_HashtableIySt4pairIKySt13unordered_mapIySt6vectorISt10shared_ptrIN3ocs11BaseMessageEESaIS7_EESt4hashIyESt8equal_toIyESaIS0_IS1_S9_EEEESaISH_ENSt8__detail10_Select1stESD_SB_NSJ_18_Mod_range_hashingENSJ_20_Default_ranged_hashENSJ_20_Prime_rehash_policyENSJ_17_Hashtable_traitsILb0ELb0ELb1EEEED1Ev @684
    _ZNSt10_HashtableIySt4pairIKySt6vectorISt10shared_ptrIN3ocs11BaseMessageEESaIS6_EEESaIS9_ENSt8__detail10_Select1stESt8equal_toIyESt4hashIyENSB_18_Mod_range_hashingENSB_20_Default_ranged_hashENSB_20_Prime_rehash_policyENSB_17_Hashtable_traitsILb0ELb0ELb1EEEE15_M_before_beginEv @685
    _ZNSt10_HashtableIySt4pairIKySt6vectorISt10shared_ptrIN3ocs11BaseMessageEESaIS6_EEESaIS9_ENSt8__detail10_Select1stESt8equal_toIyESt4hashIyENSB_18_Mod_range_hashingENSB_20_Default_ranged_hashENSB_20_Prime_rehash_policyENSB_17_Hashtable_traitsILb0ELb0ELb1EEEE17_M_node_allocatorEv @686
    _ZNSt10_HashtableIySt4pairIKySt6vectorISt10shared_ptrIN3ocs11BaseMessageEESaIS6_EEESaIS9_ENSt8__detail10_Select1stESt8equal_toIyESt4hashIyENSB_18_Mod_range_hashingENSB_20_Default_ranged_hashENSB_20_Prime_rehash_policyENSB_17_Hashtable_traitsILb0ELb0ELb1EEEE18_M_deallocate_nodeEPNSB_10_Hash_nodeIS9_Lb0EEE @687
    _ZNSt10_HashtableIySt4pairIKySt6vectorISt10shared_ptrIN3ocs11BaseMessageEESaIS6_EEESaIS9_ENSt8__detail10_Select1stESt8equal_toIyESt4hashIyENSB_18_Mod_range_hashingENSB_20_Default_ranged_hashENSB_20_Prime_rehash_policyENSB_17_Hashtable_traitsILb0ELb0ELb1EEEE19_M_allocate_bucketsEy @688
    _ZNSt10_HashtableIySt4pairIKySt6vectorISt10shared_ptrIN3ocs11BaseMessageEESaIS6_EEESaIS9_ENSt8__detail10_Select1stESt8equal_toIyESt4hashIyENSB_18_Mod_range_hashingENSB_20_Default_ranged_hashENSB_20_Prime_rehash_policyENSB_17_Hashtable_traitsILb0ELb0ELb1EEEE19_M_deallocate_nodesEPNSB_10_Hash_nodeIS9_Lb0EEE @689
    _ZNSt10_HashtableIySt4pairIKySt6vectorISt10shared_ptrIN3ocs11BaseMessageEESaIS6_EEESaIS9_ENSt8__detail10_Select1stESt8equal_toIyESt4hashIyENSB_18_Mod_range_hashingENSB_20_Default_ranged_hashENSB_20_Prime_rehash_policyENSB_17_Hashtable_traitsILb0ELb0ELb1EEEE21_M_deallocate_bucketsEPPNSB_15_Hash_node_baseEy @690
    _ZNSt10_HashtableIySt4pairIKySt6vectorISt10shared_ptrIN3ocs11BaseMessageEESaIS6_EEESaIS9_ENSt8__detail10_Select1stESt8equal_toIyESt4hashIyENSB_18_Mod_range_hashingENSB_20_Default_ranged_hashENSB_20_Prime_rehash_policyENSB_17_Hashtable_traitsILb0ELb0ELb1EEEE3endEv @691
    _ZNSt10_HashtableIySt4pairIKySt6vectorISt10shared_ptrIN3ocs11BaseMessageEESaIS6_EEESaIS9_ENSt8__detail10_Select1stESt8equal_toIyESt4hashIyENSB_18_Mod_range_hashingENSB_20_Default_ranged_hashENSB_20_Prime_rehash_policyENSB_17_Hashtable_traitsILb0ELb0ELb1EEEE5beginEv @692
    _ZNSt10_HashtableIySt4pairIKySt6vectorISt10shared_ptrIN3ocs11BaseMessageEESaIS6_EEESaIS9_ENSt8__detail10_Select1stESt8equal_toIyESt4hashIyENSB_18_Mod_range_hashingENSB_20_Default_ranged_hashENSB_20_Prime_rehash_policyENSB_17_Hashtable_traitsILb0ELb0ELb1EEEE5clearEv @693
    _ZNSt10_HashtableIySt4pairIKySt6vectorISt10shared_ptrIN3ocs11BaseMessageEESaIS6_EEESaIS9_ENSt8__detail10_Select1stESt8equal_toIyESt4hashIyENSB_18_Mod_range_hashingENSB_20_Default_ranged_hashENSB_20_Prime_rehash_policyENSB_17_Hashtable_traitsILb0ELb0ELb1EEEEC1EyRKSG_RKSE_RKSA_ @694
    _ZNSt10_HashtableIySt4pairIKySt6vectorISt10shared_ptrIN3ocs11BaseMessageEESaIS6_EEESaIS9_ENSt8__detail10_Select1stESt8equal_toIyESt4hashIyENSB_18_Mod_range_hashingENSB_20_Default_ranged_hashENSB_20_Prime_rehash_policyENSB_17_Hashtable_traitsILb0ELb0ELb1EEEEC1EyRKSG_RKSH_RKSI_RKSE_RKSC_RKSA_ @695
    _ZNSt10_HashtableIySt4pairIKySt6vectorISt10shared_ptrIN3ocs11BaseMessageEESaIS6_EEESaIS9_ENSt8__detail10_Select1stESt8equal_toIyESt4hashIyENSB_18_Mod_range_hashingENSB_20_Default_ranged_hashENSB_20_Prime_rehash_policyENSB_17_Hashtable_traitsILb0ELb0ELb1EEEED1Ev @696
    _ZNSt10_HashtableIySt4pairIKyyESaIS2_ENSt8__detail10_Select1stESt8equal_toIyESt4hashIyENS4_18_Mod_range_hashingENS4_20_Default_ranged_hashENS4_20_Prime_rehash_policyENS4_17_Hashtable_traitsILb0ELb0ELb1EEEE13_M_rehash_auxEySt17integral_constantIbLb1EE @697
    _ZNSt10_HashtableIySt4pairIKyyESaIS2_ENSt8__detail10_Select1stESt8equal_toIyESt4hashIyENS4_18_Mod_range_hashingENS4_20_Default_ranged_hashENS4_20_Prime_rehash_policyENS4_17_Hashtable_traitsILb0ELb0ELb1EEEE15_M_before_beginEv @698
    _ZNSt10_HashtableIySt4pairIKyyESaIS2_ENSt8__detail10_Select1stESt8equal_toIyESt4hashIyENS4_18_Mod_range_hashingENS4_20_Default_ranged_hashENS4_20_Prime_rehash_policyENS4_17_Hashtable_traitsILb0ELb0ELb1EEEE16_M_allocate_nodeIIRKS2_EEEPNS4_10_Hash_nodeIS2_Lb0EEEDpOT_ @699
    _ZNSt10_HashtableIySt4pairIKyyESaIS2_ENSt8__detail10_Select1stESt8equal_toIyESt4hashIyENS4_18_Mod_range_hashingENS4_20_Default_ranged_hashENS4_20_Prime_rehash_policyENS4_17_Hashtable_traitsILb0ELb0ELb1EEEE16_M_allocate_nodeIIRKSt21piecewise_construct_tSt5tupleIIRS1_EESK_IIEEEEEPNS4_10_Hash_nodeIS2_Lb0EEEDpOT_ @700
    _ZNSt10_HashtableIySt4pairIKyyESaIS2_ENSt8__detail10_Select1stESt8equal_toIyESt4hashIyENS4_18_Mod_range_hashingENS4_20_Default_ranged_hashENS4_20_Prime_rehash_policyENS4_17_Hashtable_traitsILb0ELb0ELb1EEEE17_M_node_allocatorEv @701
    _ZNSt10_HashtableIySt4pairIKyyESaIS2_ENSt8__detail10_Select1stESt8equal_toIyESt4hashIyENS4_18_Mod_range_hashingENS4_20_Default_ranged_hashENS4_20_Prime_rehash_policyENS4_17_Hashtable_traitsILb0ELb0ELb1EEEE18_M_deallocate_nodeEPNS4_10_Hash_nodeIS2_Lb0EEE @702
    _ZNSt10_HashtableIySt4pairIKyyESaIS2_ENSt8__detail10_Select1stESt8equal_toIyESt4hashIyENS4_18_Mod_range_hashingENS4_20_Default_ranged_hashENS4_20_Prime_rehash_policyENS4_17_Hashtable_traitsILb0ELb0ELb1EEEE19_M_allocate_bucketsEy @703
    _ZNSt10_HashtableIySt4pairIKyyESaIS2_ENSt8__detail10_Select1stESt8equal_toIyESt4hashIyENS4_18_Mod_range_hashingENS4_20_Default_ranged_hashENS4_20_Prime_rehash_policyENS4_17_Hashtable_traitsILb0ELb0ELb1EEEE19_M_deallocate_nodesEPNS4_10_Hash_nodeIS2_Lb0EEE @704
    _ZNSt10_HashtableIySt4pairIKyyESaIS2_ENSt8__detail10_Select1stESt8equal_toIyESt4hashIyENS4_18_Mod_range_hashingENS4_20_Default_ranged_hashENS4_20_Prime_rehash_policyENS4_17_Hashtable_traitsILb0ELb0ELb1EEEE21_M_deallocate_bucketsEPPNS4_15_Hash_node_baseEy @705
    _ZNSt10_HashtableIySt4pairIKyyESaIS2_ENSt8__detail10_Select1stESt8equal_toIyESt4hashIyENS4_18_Mod_range_hashingENS4_20_Default_ranged_hashENS4_20_Prime_rehash_policyENS4_17_Hashtable_traitsILb0ELb0ELb1EEEE21_M_insert_unique_nodeEyyPNS4_10_Hash_nodeIS2_Lb0EEE @706
    _ZNSt10_HashtableIySt4pairIKyyESaIS2_ENSt8__detail10_Select1stESt8equal_toIyESt4hashIyENS4_18_Mod_range_hashingENS4_20_Default_ranged_hashENS4_20_Prime_rehash_policyENS4_17_Hashtable_traitsILb0ELb0ELb1EEEE22_M_insert_bucket_beginEyPNS4_10_Hash_nodeIS2_Lb0EEE @707
    _ZNSt10_HashtableIySt4pairIKyyESaIS2_ENSt8__detail10_Select1stESt8equal_toIyESt4hashIyENS4_18_Mod_range_hashingENS4_20_Default_ranged_hashENS4_20_Prime_rehash_policyENS4_17_Hashtable_traitsILb0ELb0ELb1EEEE4swapERSF_ @708
    _ZNSt10_HashtableIySt4pairIKyyESaIS2_ENSt8__detail10_Select1stESt8equal_toIyESt4hashIyENS4_18_Mod_range_hashingENS4_20_Default_ranged_hashENS4_20_Prime_rehash_policyENS4_17_Hashtable_traitsILb0ELb0ELb1EEEE5clearEv @709
    _ZNSt10_HashtableIySt4pairIKyyESaIS2_ENSt8__detail10_Select1stESt8equal_toIyESt4hashIyENS4_18_Mod_range_hashingENS4_20_Default_ranged_hashENS4_20_Prime_rehash_policyENS4_17_Hashtable_traitsILb0ELb0ELb1EEEE9_M_rehashEyRS1_ @710
    _ZNSt10_HashtableIySt4pairIKyyESaIS2_ENSt8__detail10_Select1stESt8equal_toIyESt4hashIyENS4_18_Mod_range_hashingENS4_20_Default_ranged_hashENS4_20_Prime_rehash_policyENS4_17_Hashtable_traitsILb0ELb0ELb1EEEEC1ERKSF_ @711
    _ZNSt10_HashtableIySt4pairIKyyESaIS2_ENSt8__detail10_Select1stESt8equal_toIyESt4hashIyENS4_18_Mod_range_hashingENS4_20_Default_ranged_hashENS4_20_Prime_rehash_policyENS4_17_Hashtable_traitsILb0ELb0ELb1EEEEC1EyRKS9_RKS7_RKS3_ @712
    _ZNSt10_HashtableIySt4pairIKyyESaIS2_ENSt8__detail10_Select1stESt8equal_toIyESt4hashIyENS4_18_Mod_range_hashingENS4_20_Default_ranged_hashENS4_20_Prime_rehash_policyENS4_17_Hashtable_traitsILb0ELb0ELb1EEEEC1EyRKS9_RKSA_RKSB_RKS7_RKS5_RKS3_ @713
    _ZNSt10_HashtableIySt4pairIKyyESaIS2_ENSt8__detail10_Select1stESt8equal_toIyESt4hashIyENS4_18_Mod_range_hashingENS4_20_Default_ranged_hashENS4_20_Prime_rehash_policyENS4_17_Hashtable_traitsILb0ELb0ELb1EEEED1Ev @714
    _ZNSt10_HashtableIySt4pairIKyyESaIS2_ENSt8__detail10_Select1stESt8equal_toIyESt4hashIyENS4_18_Mod_range_hashingENS4_20_Default_ranged_hashENS4_20_Prime_rehash_policyENS4_17_Hashtable_traitsILb0ELb0ELb1EEEEaSERKSF_ @715
    _ZNSt10_Head_baseILy0EOyLb0EE7_M_headERS1_ @716
    _ZNSt10_Head_baseILy0EOyLb0EEC2IyvEEOT_ @717
    _ZNSt10_Head_baseILy0ERKSsLb0EE7_M_headERS2_ @718
    _ZNSt10_Head_baseILy0ERKSsLb0EEC2ES1_ @719
    _ZNSt10_Head_baseILy0ERKyLb0EE7_M_headERS2_ @720
    _ZNSt10_Head_baseILy0ERKyLb0EEC2ES1_ @721
    _ZNSt10_Iter_baseIN9__gnu_cxx17__normal_iteratorIPKSsSt6vectorISsSaISsEEEELb0EE7_S_baseES7_ @722
    _ZNSt10_Iter_baseIN9__gnu_cxx17__normal_iteratorIPKSsSt6vectorISsSaISsEEEELb1EE7_S_baseES7_ @723
    _ZNSt10_Iter_baseIN9__gnu_cxx17__normal_iteratorIPSsSt6vectorISsSaISsEEEELb1EE7_S_baseES6_ @724
    _ZNSt10_Iter_baseIPPyLb0EE7_S_baseES1_ @725
    _ZNSt10_Iter_baseIPSsLb0EE7_S_baseES0_ @726
    _ZNSt10_Iter_baseIPiLb0EE7_S_baseES0_ @727
    _ZNSt10_Iter_baseIPmLb0EE7_S_baseES0_ @728
    _ZNSt10_Iter_baseIPyLb0EE7_S_baseES0_ @729
    _ZNSt10_Iter_baseISt13_Bit_iteratorLb0EE7_S_baseES0_ @730
    _ZNSt10_Iter_baseISt13move_iteratorIPyELb1EE7_S_baseES2_ @731
    _ZNSt10_Iter_baseISt19_Bit_const_iteratorLb0EE7_S_baseES0_ @732
    _ZNSt10_List_baseISsSaISsEE10_List_implC1Ev @733
    _ZNSt10_List_baseISsSaISsEE10_List_implD1Ev @734
    _ZNSt10_List_baseISsSaISsEE11_M_get_nodeEv @735
    _ZNSt10_List_baseISsSaISsEE11_M_put_nodeEPSt10_List_nodeISsE @736
    _ZNSt10_List_baseISsSaISsEE21_M_get_Node_allocatorEv @737
    _ZNSt10_List_baseISsSaISsEE7_M_initEv @738
    _ZNSt10_List_baseISsSaISsEE8_M_clearEv @739
    _ZNSt10_List_baseISsSaISsEEC2Ev @740
    _ZNSt10_List_baseISsSaISsEED2Ev @741
    _ZNSt10_List_baseISt10shared_ptrIN3ocs6SystemEESaIS3_EE10_List_implC1Ev @742
    _ZNSt10_List_baseISt10shared_ptrIN3ocs6SystemEESaIS3_EE10_List_implD1Ev @743
    _ZNSt10_List_baseISt10shared_ptrIN3ocs6SystemEESaIS3_EE11_M_put_nodeEPSt10_List_nodeIS3_E @744
    _ZNSt10_List_baseISt10shared_ptrIN3ocs6SystemEESaIS3_EE21_M_get_Node_allocatorEv @745
    _ZNSt10_List_baseISt10shared_ptrIN3ocs6SystemEESaIS3_EE7_M_initEv @746
    _ZNSt10_List_baseISt10shared_ptrIN3ocs6SystemEESaIS3_EE8_M_clearEv @747
    _ZNSt10_List_baseISt10shared_ptrIN3ocs6SystemEESaIS3_EEC2Ev @748
    _ZNSt10_List_baseISt10shared_ptrIN3ocs6SystemEESaIS3_EED2Ev @749
    _ZNSt10_List_nodeISsEC1IIRKSsEEEDpOT_ @750
    _ZNSt10_List_nodeISsED1Ev @751
    _ZNSt10_List_nodeISt10shared_ptrIN3ocs6SystemEEED1Ev @752
    _ZNSt10__pair_getILy0EE11__const_getIKyP18BaseComponentArrayEERKT_RKSt4pairIS5_T0_E @753
    _ZNSt10__pair_getILy0EE11__const_getIKySt13unordered_mapIySt6vectorISt10shared_ptrIN3ocs11BaseMessageEESaIS8_EESt4hashIyESt8equal_toIyESaISt4pairIS2_SA_EEEEERKT_RKSF_ISJ_T0_E @754
    _ZNSt10__pair_getILy0EE11__const_getIKyyEERKT_RKSt4pairIS3_T0_E @755
    _ZNSt10__pair_getILy0EE5__getIKSsN3ocs6ObjectEEERT_RSt4pairIS5_T0_E @756
    _ZNSt10__pair_getILy0EE5__getIKSsyEERT_RSt4pairIS3_T0_E @757
    _ZNSt10__pair_getILy0EE5__getIKyP18BaseComponentArrayEERT_RSt4pairIS5_T0_E @758
    _ZNSt10__pair_getILy0EE5__getIKySt13unordered_mapIySt6vectorISt10shared_ptrIN3ocs11BaseMessageEESaIS8_EESt4hashIyESt8equal_toIyESaISt4pairIS2_SA_EEEEERT_RSF_ISJ_T0_E @759
    _ZNSt10__pair_getILy0EE5__getIKyyEERT_RSt4pairIS3_T0_E @760
    _ZNSt10shared_ptrIN3ocs11BaseMessageEED1Ev @761
    _ZNSt10shared_ptrIN3ocs6SystemEED1Ev @762
    _ZNSt11_Deque_baseIySaIyEE11_Deque_implC1EOS0_ @763
    _ZNSt11_Deque_baseIySaIyEE11_Deque_implC1Ev @764
    _ZNSt11_Deque_baseIySaIyEE11_Deque_implD1Ev @765
    _ZNSt11_Deque_baseIySaIyEE15_M_allocate_mapEy @766
    _ZNSt11_Deque_baseIySaIyEE15_M_create_nodesEPPyS3_ @767
    _ZNSt11_Deque_baseIySaIyEE16_M_allocate_nodeEv @768
    _ZNSt11_Deque_baseIySaIyEE16_M_destroy_nodesEPPyS3_ @769
    _ZNSt11_Deque_baseIySaIyEE17_M_deallocate_mapEPPyy @770
    _ZNSt11_Deque_baseIySaIyEE17_M_initialize_mapEy @771
    _ZNSt11_Deque_baseIySaIyEE18_M_deallocate_nodeEPy @772
    _ZNSt11_Deque_baseIySaIyEE19_M_get_Tp_allocatorEv @773
    _ZNSt11_Deque_baseIySaIyEEC2EOS1_ @774
    _ZNSt11_Deque_baseIySaIyEEC2Ev @775
    _ZNSt11_Deque_baseIySaIyEED2Ev @776
    _ZNSt11_Tuple_implILy0EIOyEE7_M_headERS1_ @777
    _ZNSt11_Tuple_implILy0EIOyEE7_M_tailERS1_ @778
    _ZNSt11_Tuple_implILy0EIOyEEC2EOS1_ @779
    _ZNSt11_Tuple_implILy0EIOyEEC2IyIEvEEOT_DpOT0_ @780
    _ZNSt11_Tuple_implILy0EIRKSsEE7_M_headERS2_ @781
    _ZNSt11_Tuple_implILy0EIRKSsEE7_M_tailERS2_ @782
    _ZNSt11_Tuple_implILy0EIRKSsEEC2EOS2_ @783
    _ZNSt11_Tuple_implILy0EIRKSsEEC2ES1_ @784
    _ZNSt11_Tuple_implILy0EIRKyEE7_M_headERS2_ @785
    _ZNSt11_Tuple_implILy0EIRKyEE7_M_tailERS2_ @786
    _ZNSt11_Tuple_implILy0EIRKyEEC2EOS2_ @787
    _ZNSt11_Tuple_implILy0EIRKyEEC2ES1_ @788
    _ZNSt11_Tuple_implILy1EIEEC2Ev @789
    _ZNSt11__copy_moveILb0ELb0ESt26random_access_iterator_tagE8__copy_mIPKSsPSsEET0_T_S7_S6_ @790
    _ZNSt11__copy_moveILb0ELb0ESt26random_access_iterator_tagE8__copy_mIPSsS3_EET0_T_S5_S4_ @791
    _ZNSt11__copy_moveILb0ELb0ESt26random_access_iterator_tagE8__copy_mISt13_Bit_iteratorS3_EET0_T_S5_S4_ @792
    _ZNSt11__copy_moveILb0ELb0ESt26random_access_iterator_tagE8__copy_mISt19_Bit_const_iteratorSt13_Bit_iteratorEET0_T_S6_S5_ @793
    _ZNSt11__copy_moveILb0ELb1ESt26random_access_iterator_tagE8__copy_mIPyEEPT_PKS4_S7_S5_ @794
    _ZNSt11__copy_moveILb0ELb1ESt26random_access_iterator_tagE8__copy_mImEEPT_PKS3_S6_S4_ @795
    _ZNSt11__copy_moveILb1ELb1ESt26random_access_iterator_tagE8__copy_mIyEEPT_PKS3_S6_S4_ @796
    _ZNSt11char_traitsIcE6lengthEPKc @797
    _ZNSt11char_traitsIcE7compareEPKcS2_y @798
    _ZNSt12_Destroy_auxILb0EE9__destroyIN9__gnu_cxx17__normal_iteratorIPSsSt6vectorISsSaISsEEEEEEvT_S9_ @799
    _ZNSt12_Destroy_auxILb0EE9__destroyIPN3ocs6ObjectEEEvT_S5_ @800
    _ZNSt12_Destroy_auxILb0EE9__destroyIPSsEEvT_S3_ @801
    _ZNSt12_Destroy_auxILb0EE9__destroyIPSt10shared_ptrIN3ocs11BaseMessageEEEEvT_S7_ @802
    _ZNSt12_Destroy_auxILb0EE9__destroyIPSt4pairIySsEEEvT_S5_ @803
    _ZNSt12_Destroy_auxILb0EE9__destroyIPSt6vectorISsSaISsEEEEvT_S6_ @804
    _ZNSt12_Destroy_auxILb0EE9__destroyIPSt6vectorIbSaIbEEEEvT_S6_ @805
    _ZNSt12_Destroy_auxILb1EE9__destroyIPiEEvT_S3_ @806
    _ZNSt12_Destroy_auxILb1EE9__destroyIPyEEvT_S3_ @807
    _ZNSt12_Vector_baseIN3ocs6ObjectESaIS1_EE11_M_allocateEy @808
    _ZNSt12_Vector_baseIN3ocs6ObjectESaIS1_EE12_Vector_implC1Ev @809
    _ZNSt12_Vector_baseIN3ocs6ObjectESaIS1_EE12_Vector_implD1Ev @810
    _ZNSt12_Vector_baseIN3ocs6ObjectESaIS1_EE13_M_deallocateEPS1_y @811
    _ZNSt12_Vector_baseIN3ocs6ObjectESaIS1_EE19_M_get_Tp_allocatorEv @812
    _ZNSt12_Vector_baseIN3ocs6ObjectESaIS1_EEC2Ev @813
    _ZNSt12_Vector_baseIN3ocs6ObjectESaIS1_EED2Ev @814
    _ZNSt12_Vector_baseISsSaISsEE11_M_allocateEy @815
    _ZNSt12_Vector_baseISsSaISsEE12_Vector_impl12_M_swap_dataERS2_ @816
    _ZNSt12_Vector_baseISsSaISsEE12_Vector_implC1EOS0_ @817
    _ZNSt12_Vector_baseISsSaISsEE12_Vector_implC1ERKS0_ @818
    _ZNSt12_Vector_baseISsSaISsEE12_Vector_implC1Ev @819
    _ZNSt12_Vector_baseISsSaISsEE12_Vector_implD1Ev @820
    _ZNSt12_Vector_baseISsSaISsEE13_M_deallocateEPSsy @821
    _ZNSt12_Vector_baseISsSaISsEE19_M_get_Tp_allocatorEv @822
    _ZNSt12_Vector_baseISsSaISsEEC2EOS1_ @823
    _ZNSt12_Vector_baseISsSaISsEEC2ERKS0_ @824
    _ZNSt12_Vector_baseISsSaISsEEC2Ev @825
    _ZNSt12_Vector_baseISsSaISsEED2Ev @826
    _ZNSt12_Vector_baseISt10shared_ptrIN3ocs11BaseMessageEESaIS3_EE12_Vector_implD1Ev @827
    _ZNSt12_Vector_baseISt10shared_ptrIN3ocs11BaseMessageEESaIS3_EE13_M_deallocateEPS3_y @828
    _ZNSt12_Vector_baseISt10shared_ptrIN3ocs11BaseMessageEESaIS3_EE19_M_get_Tp_allocatorEv @829
    _ZNSt12_Vector_baseISt10shared_ptrIN3ocs11BaseMessageEESaIS3_EED2Ev @830
    _ZNSt12_Vector_baseISt4pairIySsESaIS1_EE11_M_allocateEy @831
    _ZNSt12_Vector_baseISt4pairIySsESaIS1_EE12_Vector_implC1ERKS2_ @832
    _ZNSt12_Vector_baseISt4pairIySsESaIS1_EE12_Vector_implD1Ev @833
    _ZNSt12_Vector_baseISt4pairIySsESaIS1_EE13_M_deallocateEPS1_y @834
    _ZNSt12_Vector_baseISt4pairIySsESaIS1_EE17_M_create_storageEy @835
    _ZNSt12_Vector_baseISt4pairIySsESaIS1_EE19_M_get_Tp_allocatorEv @836
    _ZNSt12_Vector_baseISt4pairIySsESaIS1_EEC2EyRKS2_ @837
    _ZNSt12_Vector_baseISt4pairIySsESaIS1_EED2Ev @838
    _ZNSt12_Vector_baseISt6vectorISsSaISsEESaIS2_EE11_M_allocateEy @839
    _ZNSt12_Vector_baseISt6vectorISsSaISsEESaIS2_EE12_Vector_implC1Ev @840
    _ZNSt12_Vector_baseISt6vectorISsSaISsEESaIS2_EE12_Vector_implD1Ev @841
    _ZNSt12_Vector_baseISt6vectorISsSaISsEESaIS2_EE13_M_deallocateEPS2_y @842
    _ZNSt12_Vector_baseISt6vectorISsSaISsEESaIS2_EE19_M_get_Tp_allocatorEv @843
    _ZNSt12_Vector_baseISt6vectorISsSaISsEESaIS2_EEC2Ev @844
    _ZNSt12_Vector_baseISt6vectorISsSaISsEESaIS2_EED2Ev @845
    _ZNSt12_Vector_baseISt6vectorIbSaIbEESaIS2_EE11_M_allocateEy @846
    _ZNSt12_Vector_baseISt6vectorIbSaIbEESaIS2_EE13_M_deallocateEPS2_y @847
    _ZNSt12_Vector_baseISt6vectorIbSaIbEESaIS2_EE19_M_get_Tp_allocatorEv @848
    _ZNSt12_Vector_baseIiSaIiEE11_M_allocateEy @849
    _ZNSt12_Vector_baseIiSaIiEE12_Vector_implC1ERKS0_ @850
    _ZNSt12_Vector_baseIiSaIiEE12_Vector_implD1Ev @851
    _ZNSt12_Vector_baseIiSaIiEE13_M_deallocateEPiy @852
    _ZNSt12_Vector_baseIiSaIiEE17_M_create_storageEy @853
    _ZNSt12_Vector_baseIiSaIiEE19_M_get_Tp_allocatorEv @854
    _ZNSt12_Vector_baseIiSaIiEEC2EyRKS0_ @855
    _ZNSt12_Vector_baseIiSaIiEED2Ev @856
    _ZNSt12_Vector_baseIySaIyEE11_M_allocateEy @857
    _ZNSt12_Vector_baseIySaIyEE12_Vector_implC1Ev @858
    _ZNSt12_Vector_baseIySaIyEE12_Vector_implD1Ev @859
    _ZNSt12_Vector_baseIySaIyEE13_M_deallocateEPyy @860
    _ZNSt12_Vector_baseIySaIyEE19_M_get_Tp_allocatorEv @861
    _ZNSt12_Vector_baseIySaIyEEC2Ev @862
    _ZNSt12_Vector_baseIySaIyEED2Ev @863
    _ZNSt12__alloc_swapISaINSt8__detail10_Hash_nodeISt4pairIKyP18BaseComponentArrayELb0EEEELb1EE8_S_do_itERS8_SA_ @864
    _ZNSt12__alloc_swapISaINSt8__detail10_Hash_nodeISt4pairIKyyELb0EEEELb1EE8_S_do_itERS6_S8_ @865
    _ZNSt12__shared_ptrIN3ocs11BaseMessageELN9__gnu_cxx12_Lock_policyE2EED2Ev @866
    _ZNSt12__shared_ptrIN3ocs6SystemELN9__gnu_cxx12_Lock_policyE2EED2Ev @867
    _ZNSt13_Bit_iteratorC1EPmj @868
    _ZNSt13_Bit_iteratorC1Ev @869
    _ZNSt13_Bit_iteratormmEv @870
    _ZNSt13_Bit_iteratorpLEx @871
    _ZNSt13_Bit_iteratorppEi @872
    _ZNSt13_Bit_iteratorppEv @873
    _ZNSt13_Bvector_baseISaIbEE11_M_allocateEy @874
    _ZNSt13_Bvector_baseISaIbEE13_Bvector_implC1EOSaImE @875
    _ZNSt13_Bvector_baseISaIbEE13_Bvector_implC1Ev @876
    _ZNSt13_Bvector_baseISaIbEE13_Bvector_implD1Ev @877
    _ZNSt13_Bvector_baseISaIbEE13_M_deallocateEv @878
    _ZNSt13_Bvector_baseISaIbEE20_M_get_Bit_allocatorEv @879
    _ZNSt13_Bvector_baseISaIbEE8_S_nwordEy @880
    _ZNSt13_Bvector_baseISaIbEEC2EOS1_ @881
    _ZNSt13_Bvector_baseISaIbEEC2Ev @882
    _ZNSt13_Bvector_baseISaIbEED2Ev @883
    _ZNSt13_Rb_tree_nodeISsEC1IIRKSsEEEDpOT_ @884
    _ZNSt13_Rb_tree_nodeISsED1Ev @885
    _ZNSt13move_iteratorIPSsEC1ES0_ @886
    _ZNSt13move_iteratorIPSsEppEv @887
    _ZNSt13move_iteratorIPSt6vectorISsSaISsEEEC1ES3_ @888
    _ZNSt13move_iteratorIPSt6vectorISsSaISsEEEppEv @889
    _ZNSt13move_iteratorIPSt6vectorIbSaIbEEEC1ES3_ @890
    _ZNSt13move_iteratorIPSt6vectorIbSaIbEEEppEv @891
    _ZNSt13move_iteratorIPyEC1ES0_ @892
    _ZNSt13unordered_mapISsN3ocs6ObjectESt4hashISsESt8equal_toISsESaISt4pairIKSsS1_EEEC1EyRKS3_RKS5_RKS9_ @893
    _ZNSt13unordered_mapISsN3ocs6ObjectESt4hashISsESt8equal_toISsESaISt4pairIKSsS1_EEED1Ev @894
    _ZNSt13unordered_mapISsN3ocs6ObjectESt4hashISsESt8equal_toISsESaISt4pairIKSsS1_EEEixERS7_ @895
    _ZNSt13unordered_mapISsySt4hashISsESt8equal_toISsESaISt4pairIKSsyEEE3endEv @896
    _ZNSt13unordered_mapISsySt4hashISsESt8equal_toISsESaISt4pairIKSsyEEE4findERS5_ @897
    _ZNSt13unordered_mapISsySt4hashISsESt8equal_toISsESaISt4pairIKSsyEEEC1EyRKS1_RKS3_RKS7_ @898
    _ZNSt13unordered_mapISsySt4hashISsESt8equal_toISsESaISt4pairIKSsyEEED1Ev @899
    _ZNSt13unordered_mapISsySt4hashISsESt8equal_toISsESaISt4pairIKSsyEEEixERS5_ @900
    _ZNSt13unordered_mapIyP18BaseComponentArraySt4hashIyESt8equal_toIyESaISt4pairIKyS1_EEE2atERS7_ @901
    _ZNSt13unordered_mapIyP18BaseComponentArraySt4hashIyESt8equal_toIyESaISt4pairIKyS1_EEE3endEv @902
    _ZNSt13unordered_mapIyP18BaseComponentArraySt4hashIyESt8equal_toIyESaISt4pairIKyS1_EEE4findERS7_ @903
    _ZNSt13unordered_mapIyP18BaseComponentArraySt4hashIyESt8equal_toIyESaISt4pairIKyS1_EEE5beginEv @904
    _ZNSt13unordered_mapIyP18BaseComponentArraySt4hashIyESt8equal_toIyESaISt4pairIKyS1_EEEC1ERKSA_ @905
    _ZNSt13unordered_mapIyP18BaseComponentArraySt4hashIyESt8equal_toIyESaISt4pairIKyS1_EEEC1EyRKS3_RKS5_RKS9_ @906
    _ZNSt13unordered_mapIyP18BaseComponentArraySt4hashIyESt8equal_toIyESaISt4pairIKyS1_EEED1Ev @907
    _ZNSt13unordered_mapIyP18BaseComponentArraySt4hashIyESt8equal_toIyESaISt4pairIKyS1_EEEaSERKSA_ @908
    _ZNSt13unordered_mapIyP18BaseComponentArraySt4hashIyESt8equal_toIyESaISt4pairIKyS1_EEEixERS7_ @909
    _ZNSt13unordered_mapIyS_IySt6vectorISt10shared_ptrIN3ocs11BaseMessageEESaIS4_EESt4hashIyESt8equal_toIyESaISt4pairIKyS6_EEES8_SA_SaISB_ISC_SF_EEEC1EyRKS8_RKSA_RKSH_ @910
    _ZNSt13unordered_mapIyS_IySt6vectorISt10shared_ptrIN3ocs11BaseMessageEESaIS4_EESt4hashIyESt8equal_toIyESaISt4pairIKyS6_EEES8_SA_SaISB_ISC_SF_EEED1Ev @911
    _ZNSt13unordered_mapIyS_IySt6vectorISt10shared_ptrIN3ocs11BaseMessageEESaIS4_EESt4hashIyESt8equal_toIyESaISt4pairIKyS6_EEES8_SA_SaISB_ISC_SF_EEEixEOy @912
    _ZNSt13unordered_mapIyS_IySt6vectorISt10shared_ptrIN3ocs11BaseMessageEESaIS4_EESt4hashIyESt8equal_toIyESaISt4pairIKyS6_EEES8_SA_SaISB_ISC_SF_EEEixERSC_ @913
    _ZNSt13unordered_mapIySt6vectorISt10shared_ptrIN3ocs11BaseMessageEESaIS4_EESt4hashIyESt8equal_toIyESaISt4pairIKyS6_EEE3endEv @914
    _ZNSt13unordered_mapIySt6vectorISt10shared_ptrIN3ocs11BaseMessageEESaIS4_EESt4hashIyESt8equal_toIyESaISt4pairIKyS6_EEE5beginEv @915
    _ZNSt13unordered_mapIySt6vectorISt10shared_ptrIN3ocs11BaseMessageEESaIS4_EESt4hashIyESt8equal_toIyESaISt4pairIKyS6_EEEC1EyRKS8_RKSA_RKSE_ @916
    _ZNSt13unordered_mapIySt6vectorISt10shared_ptrIN3ocs11BaseMessageEESaIS4_EESt4hashIyESt8equal_toIyESaISt4pairIKyS6_EEED1Ev @917
    _ZNSt13unordered_mapIyySt4hashIyESt8equal_toIyESaISt4pairIKyyEEE2atERS5_ @918
    _ZNSt13unordered_mapIyySt4hashIyESt8equal_toIyESaISt4pairIKyyEEEC1ERKS8_ @919
    _ZNSt13unordered_mapIyySt4hashIyESt8equal_toIyESaISt4pairIKyyEEEC1EyRKS1_RKS3_RKS7_ @920
    _ZNSt13unordered_mapIyySt4hashIyESt8equal_toIyESaISt4pairIKyyEEED1Ev @921
    _ZNSt13unordered_mapIyySt4hashIyESt8equal_toIyESaISt4pairIKyyEEEaSERKS8_ @922
    _ZNSt13unordered_mapIyySt4hashIyESt8equal_toIyESaISt4pairIKyyEEEixERS5_ @923
    _ZNSt14_Bit_referenceC1EPmm @924
    _ZNSt14_Bit_referenceaSERKS_ @925
    _ZNSt14_Bit_referenceaSEb @926
    _ZNSt14_List_iteratorISsEC1EPNSt8__detail15_List_node_baseE @927
    _ZNSt14_List_iteratorISsEmmEv @928
    _ZNSt14_List_iteratorISsEppEv @929
    _ZNSt14_List_iteratorISt10shared_ptrIN3ocs6SystemEEEC1EPNSt8__detail15_List_node_baseE @930
    _ZNSt14_List_iteratorISt10shared_ptrIN3ocs6SystemEEEppEv @931
    _ZNSt14__shared_countILN9__gnu_cxx12_Lock_policyE2EED1Ev @932
    _ZNSt15_Deque_iteratorIyRyPyE11_M_set_nodeEPS1_ @933
    _ZNSt15_Deque_iteratorIyRyPyE14_S_buffer_sizeEv @934
    _ZNSt15_Deque_iteratorIyRyPyEC1ERKS2_ @935
    _ZNSt15_Deque_iteratorIyRyPyEC1Ev @936
    _ZNSt15_Deque_iteratorIyRyPyEmmEv @937
    _ZNSt16_Sp_counted_baseILN9__gnu_cxx12_Lock_policyE2EE10_M_releaseEv @938
    _ZNSt16allocator_traitsISaIN3ocs6ObjectEEE10_S_destroyIS1_EENSt9enable_ifIXsrNS3_16__destroy_helperIT_EE5valueEvE4typeERS2_PS7_ @939
    _ZNSt16allocator_traitsISaIN3ocs6ObjectEEE11_S_max_sizeIKS2_EENSt9enable_ifIXsrNS3_16__maxsize_helperIT_EE5valueEyE4typeERS8_ @940
    _ZNSt16allocator_traitsISaIN3ocs6ObjectEEE12_S_constructIS1_IRKS1_EEENSt9enable_ifIXsrNS3_18__construct_helperIT_IDpT0_EEE5valueEvE4typeERS2_PS9_DpOSA_ @941
    _ZNSt16allocator_traitsISaIN3ocs6ObjectEEE7destroyIS1_EEvRS2_PT_ @942
    _ZNSt16allocator_traitsISaIN3ocs6ObjectEEE8max_sizeERKS2_ @943
    _ZNSt16allocator_traitsISaIN3ocs6ObjectEEE9constructIS1_IRKS1_EEEDTcl12_S_constructfp_fp0_spcl7forwardIT0_Efp1_EEERS2_PT_DpOS7_ @944
    _ZNSt16allocator_traitsISaISsEE10_S_destroyISsEENSt9enable_ifIXsrNS1_16__destroy_helperIT_EE5valueEvE4typeERS0_PS5_ @945
    _ZNSt16allocator_traitsISaISsEE11_S_max_sizeIKS0_EENSt9enable_ifIXsrNS1_16__maxsize_helperIT_EE5valueEyE4typeERS6_ @946
    _ZNSt16allocator_traitsISaISsEE12_S_constructISsIRKSsEEENSt9enable_ifIXsrNS1_18__construct_helperIT_IDpT0_EEE5valueEvE4typeERS0_PS7_DpOS8_ @947
    _ZNSt16allocator_traitsISaISsEE12_S_constructISsISsEEENSt9enable_ifIXsrNS1_18__construct_helperIT_IDpT0_EEE5valueEvE4typeERS0_PS5_DpOS6_ @948
    _ZNSt16allocator_traitsISaISsEE7destroyISsEEvRS0_PT_ @949
    _ZNSt16allocator_traitsISaISsEE8max_sizeERKS0_ @950
    _ZNSt16allocator_traitsISaISsEE9constructISsIRKSsEEEDTcl12_S_constructfp_fp0_spcl7forwardIT0_Efp1_EEERS0_PT_DpOS5_ @951
    _ZNSt16allocator_traitsISaISsEE9constructISsISsEEEDTcl12_S_constructfp_fp0_spcl7forwardIT0_Efp1_EEERS0_PT_DpOS3_ @952
    _ZNSt16allocator_traitsISaISt13_Rb_tree_nodeISsEEE12_S_constructIS1_IRKSsEEENSt9enable_ifIXsrNS3_18__construct_helperIT_IDpT0_EEE5valueEvE4typeERS2_PS9_DpOSA_ @953
    _ZNSt16allocator_traitsISaISt13_Rb_tree_nodeISsEEE9constructIS1_IRKSsEEEDTcl12_S_constructfp_fp0_spcl7forwardIT0_Efp1_EEERS2_PT_DpOS7_ @954
    _ZNSt16allocator_traitsISaISt4pairIySsEEE37select_on_container_copy_constructionERKS2_ @955
    _ZNSt16allocator_traitsISaISt4pairIySsEEE9_S_selectIKS2_EENSt9enable_ifIXntsrNS3_15__select_helperIT_EE5valueES8_E4typeERS8_ @956
    _ZNSt16allocator_traitsISaISt6vectorISsSaISsEEEE11_S_max_sizeIKS3_EENSt9enable_ifIXsrNS4_16__maxsize_helperIT_EE5valueEyE4typeERS9_ @957
    _ZNSt16allocator_traitsISaISt6vectorISsSaISsEEEE8max_sizeERKS3_ @958
    _ZNSt16allocator_traitsISaISt6vectorIbSaIbEEEE11_S_max_sizeIKS3_EENSt9enable_ifIXsrNS4_16__maxsize_helperIT_EE5valueEyE4typeERS9_ @959
    _ZNSt16allocator_traitsISaISt6vectorIbSaIbEEEE8max_sizeERKS3_ @960
    _ZNSt16allocator_traitsISaIyEE10_S_destroyIyEENSt9enable_ifIXsrNS1_16__destroy_helperIT_EE5valueEvE4typeERS0_PS5_ @961
    _ZNSt16allocator_traitsISaIyEE11_S_max_sizeIKS0_EENSt9enable_ifIXsrNS1_16__maxsize_helperIT_EE5valueEyE4typeERS6_ @962
    _ZNSt16allocator_traitsISaIyEE12_S_constructIyIRKyEEENSt9enable_ifIXsrNS1_18__construct_helperIT_IDpT0_EEE5valueEvE4typeERS0_PS7_DpOS8_ @963
    _ZNSt16allocator_traitsISaIyEE7destroyIyEEvRS0_PT_ @964
    _ZNSt16allocator_traitsISaIyEE8max_sizeERKS0_ @965
    _ZNSt16allocator_traitsISaIyEE9constructIyIRKyEEEDTcl12_S_constructfp_fp0_spcl7forwardIT0_Efp1_EEERS0_PT_DpOS5_ @966
    _ZNSt17_Rb_tree_iteratorISsEC1EPSt13_Rb_tree_nodeISsE @967
    _ZNSt17_Rb_tree_iteratorISsEmmEv @968
    _ZNSt17_Rb_tree_iteratorISsEppEv @969
    _ZNSt17__allow_copy_consILb1EEC2Ev @970
    _ZNSt18_Bit_iterator_base10_M_bump_upEv @971
    _ZNSt18_Bit_iterator_base12_M_bump_downEv @972
    _ZNSt18_Bit_iterator_base7_M_incrEx @973
    _ZNSt18_Bit_iterator_baseC2EPmj @974
    _ZNSt19_Bit_const_iteratorC1EPmj @975
    _ZNSt19_Bit_const_iteratorC1ERKSt13_Bit_iterator @976
    _ZNSt19_Bit_const_iteratorppEv @977
    _ZNSt20_List_const_iteratorISt10shared_ptrIN3ocs6SystemEEEC1EPKNSt8__detail15_List_node_baseE @978
    _ZNSt20_List_const_iteratorISt10shared_ptrIN3ocs6SystemEEEppEv @979
    _ZNSt20__copy_move_backwardILb0ELb0ESt26random_access_iterator_tagE13__copy_move_bISt13_Bit_iteratorS3_EET0_T_S5_S4_ @980
    _ZNSt20__copy_move_backwardILb0ELb1ESt26random_access_iterator_tagE13__copy_move_bIPyEEPT_PKS4_S7_S5_ @981
    _ZNSt20__uninitialized_copyILb0EE13__uninit_copyIN9__gnu_cxx17__normal_iteratorIPKSsSt6vectorISsSaISsEEEEPSsEET0_T_SC_SB_ @982
    _ZNSt20__uninitialized_copyILb0EE13__uninit_copyIN9__gnu_cxx17__normal_iteratorIPKSt4pairIySsESt6vectorIS5_SaIS5_EEEEPS5_EET0_T_SE_SD_ @983
    _ZNSt20__uninitialized_copyILb0EE13__uninit_copyIPKSsPSsEET0_T_S6_S5_ @984
    _ZNSt20__uninitialized_copyILb0EE13__uninit_copyIPN3ocs6ObjectES4_EET0_T_S6_S5_ @985
    _ZNSt20__uninitialized_copyILb0EE13__uninit_copyIPSsS2_EET0_T_S4_S3_ @986
    _ZNSt20__uninitialized_copyILb0EE13__uninit_copyISt13move_iteratorIPSsES3_EET0_T_S6_S5_ @987
    _ZNSt20__uninitialized_copyILb0EE13__uninit_copyISt13move_iteratorIPSt6vectorISsSaISsEEES6_EET0_T_S9_S8_ @988
    _ZNSt20__uninitialized_copyILb0EE13__uninit_copyISt13move_iteratorIPSt6vectorIbSaIbEEES6_EET0_T_S9_S8_ @989
    _ZNSt20__uninitialized_copyILb1EE13__uninit_copyISt13move_iteratorIPyES3_EET0_T_S6_S5_ @990
    _ZNSt22__uninitialized_fill_nILb1EE15__uninit_fill_nIPiyiEEvT_T0_RKT1_ @991
    _ZNSt23_Rb_tree_const_iteratorISsEC1EPKSt13_Rb_tree_nodeISsE @992
    _ZNSt23_Rb_tree_const_iteratorISsEC1ERKSt17_Rb_tree_iteratorISsE @993
    _ZNSt23_Rb_tree_const_iteratorISsEppEv @994
    _ZNSt27__uninitialized_default_n_1ILb0EE18__uninit_default_nIPSt6vectorISsSaISsEEyEEvT_T0_ @995
    _ZNSt27__uninitialized_default_n_1ILb0EE18__uninit_default_nIPSt6vectorIbSaIbEEyEEvT_T0_ @996
    _ZNSt3setISsSt4lessISsESaISsEEC1ESt16initializer_listISsERKS1_RKS2_ @997
    _ZNSt3setISsSt4lessISsESaISsEED1Ev @998
    _ZNSt4listISsSaISsEE14_M_create_nodeIIRKSsEEEPSt10_List_nodeISsEDpOT_ @999
    _ZNSt4listISsSaISsEE3endEv @1000
    _ZNSt4listISsSaISsEE5beginEv @1001
    _ZNSt4listISsSaISsEE5eraseESt14_List_iteratorISsE @1002
    _ZNSt4listISsSaISsEE5eraseESt14_List_iteratorISsES3_ @1003
    _ZNSt4listISsSaISsEE6insertESt14_List_iteratorISsERKSs @1004
    _ZNSt4listISsSaISsEE8_M_eraseESt14_List_iteratorISsE @1005
    _ZNSt4listISsSaISsEE9_M_insertIIRKSsEEEvSt14_List_iteratorISsEDpOT_ @1006
    _ZNSt4listISsSaISsEE9push_backERKSs @1007
    _ZNSt4listISsSaISsEEC1Ev @1008
    _ZNSt4listISsSaISsEED1Ev @1009
    _ZNSt4listISt10shared_ptrIN3ocs6SystemEESaIS3_EE3endEv @1010
    _ZNSt4listISt10shared_ptrIN3ocs6SystemEESaIS3_EE5beginEv @1011
    _ZNSt4listISt10shared_ptrIN3ocs6SystemEESaIS3_EEC1Ev @1012
    _ZNSt4listISt10shared_ptrIN3ocs6SystemEESaIS3_EED1Ev @1013
    _ZNSt4pairIKSsN3ocs6ObjectEEC1IIRS0_EIEEESt21piecewise_construct_tSt5tupleIIDpT_EES7_IIDpT0_EE @1014
    _ZNSt4pairIKSsN3ocs6ObjectEEC1IIRS0_EILy0EEIEIEEERSt5tupleIIDpT_EERS6_IIDpT1_EESt12_Index_tupleIIXspT0_EEESF_IIXspT2_EEE @1015
    _ZNSt4pairIKSsN3ocs6ObjectEED1Ev @1016
    _ZNSt4pairIKSsyEC1IIRS0_EIEEESt21piecewise_construct_tSt5tupleIIDpT_EES5_IIDpT0_EE @1017
    _ZNSt4pairIKSsyEC1IIRS0_EILy0EEIEIEEERSt5tupleIIDpT_EERS4_IIDpT1_EESt12_Index_tupleIIXspT0_EEESD_IIXspT2_EEE @1018
    _ZNSt4pairIKSsyED1Ev @1019
    _ZNSt4pairIKyP18BaseComponentArrayEC1IIRS0_EIEEESt21piecewise_construct_tSt5tupleIIDpT_EES7_IIDpT0_EE @1020
    _ZNSt4pairIKyP18BaseComponentArrayEC1IIRS0_EILy0EEIEIEEERSt5tupleIIDpT_EERS6_IIDpT1_EESt12_Index_tupleIIXspT0_EEESF_IIXspT2_EEE @1021
    _ZNSt4pairIKySt13unordered_mapIySt6vectorISt10shared_ptrIN3ocs11BaseMessageEESaIS6_EESt4hashIyESt8equal_toIyESaIS_IS0_S8_EEEEC1IIOyEIEEESt21piecewise_construct_tSt5tupleIIDpT_EESK_IIDpT0_EE @1022
    _ZNSt4pairIKySt13unordered_mapIySt6vectorISt10shared_ptrIN3ocs11BaseMessageEESaIS6_EESt4hashIyESt8equal_toIyESaIS_IS0_S8_EEEEC1IIOyEILy0EEIEIEEERSt5tupleIIDpT_EERSJ_IIDpT1_EESt12_Index_tupleIIXspT0_EEESS_IIXspT2_EEE @1023
    _ZNSt4pairIKySt13unordered_mapIySt6vectorISt10shared_ptrIN3ocs11BaseMessageEESaIS6_EESt4hashIyESt8equal_toIyESaIS_IS0_S8_EEEEC1IIRS0_EIEEESt21piecewise_construct_tSt5tupleIIDpT_EESK_IIDpT0_EE @1024
    _ZNSt4pairIKySt13unordered_mapIySt6vectorISt10shared_ptrIN3ocs11BaseMessageEESaIS6_EESt4hashIyESt8equal_toIyESaIS_IS0_S8_EEEEC1IIRS0_EILy0EEIEIEEERSt5tupleIIDpT_EERSJ_IIDpT1_EESt12_Index_tupleIIXspT0_EEESS_IIXspT2_EEE @1025
    _ZNSt4pairIKySt13unordered_mapIySt6vectorISt10shared_ptrIN3ocs11BaseMessageEESaIS6_EESt4hashIyESt8equal_toIyESaIS_IS0_S8_EEEED1Ev @1026
    _ZNSt4pairIKySt6vectorISt10shared_ptrIN3ocs11BaseMessageEESaIS5_EEED1Ev @1027
    _ZNSt4pairIKyyEC1IIRS0_EIEEESt21piecewise_construct_tSt5tupleIIDpT_EES5_IIDpT0_EE @1028
    _ZNSt4pairIKyyEC1IIRS0_EILy0EEIEIEEERSt5tupleIIDpT_EERS4_IIDpT1_EESt12_Index_tupleIIXspT0_EEESD_IIXspT2_EEE @1029
    _ZNSt4pairIPSt18_Rb_tree_node_baseS1_EC1IRPSt13_Rb_tree_nodeISsES7_vEEOT_OT0_ @1030
    _ZNSt4pairIPSt18_Rb_tree_node_baseS1_EC1IRS1_S4_vEEOT_OT0_ @1031
    _ZNSt4pairIPSt18_Rb_tree_node_baseS1_EC1IRS1_vEEOT_RKS1_ @1032
    _ZNSt4pairIPSt18_Rb_tree_node_baseS1_EC1IRS1_vEERKS1_OT_ @1033
    _ZNSt4pairIySsEC1ERKS0_ @1034
    _ZNSt4pairIySsED1Ev @1035
    _ZNSt5dequeIySaIyEE15_M_destroy_dataESt15_Deque_iteratorIyRyPyES5_RKS0_ @1036
    _ZNSt5dequeIySaIyEE15_M_pop_back_auxEv @1037
    _ZNSt5dequeIySaIyEE16_M_pop_front_auxEv @1038
    _ZNSt5dequeIySaIyEE16_M_push_back_auxIIRKyEEEvDpOT_ @1039
    _ZNSt5dequeIySaIyEE17_M_reallocate_mapEyb @1040
    _ZNSt5dequeIySaIyEE22_M_reserve_map_at_backEy @1041
    _ZNSt5dequeIySaIyEE3endEv @1042
    _ZNSt5dequeIySaIyEE4backEv @1043
    _ZNSt5dequeIySaIyEE5beginEv @1044
    _ZNSt5dequeIySaIyEE5frontEv @1045
    _ZNSt5dequeIySaIyEE8pop_backEv @1046
    _ZNSt5dequeIySaIyEE9pop_frontEv @1047
    _ZNSt5dequeIySaIyEE9push_backERKy @1048
    _ZNSt5dequeIySaIyEEC1EOS1_ @1049
    _ZNSt5dequeIySaIyEEC1Ev @1050
    _ZNSt5dequeIySaIyEED1Ev @1051
    _ZNSt5queueIySt5dequeIySaIyEEE3popEv @1052
    _ZNSt5queueIySt5dequeIySaIyEEE4pushERKy @1053
    _ZNSt5queueIySt5dequeIySaIyEEE5frontEv @1054
    _ZNSt5queueIySt5dequeIySaIyEEEC1EOS2_ @1055
    _ZNSt5queueIySt5dequeIySaIyEEED1Ev @1056
    _ZNSt5stackIySt5dequeIySaIyEEE3popEv @1057
    _ZNSt5stackIySt5dequeIySaIyEEE3topEv @1058
    _ZNSt5stackIySt5dequeIySaIyEEE4pushERKy @1059
    _ZNSt5stackIySt5dequeIySaIyEEEC1EOS2_ @1060
    _ZNSt5stackIySt5dequeIySaIyEEED1Ev @1061
    _ZNSt5tupleIIOyEEC1EOS1_ @1062
    _ZNSt5tupleIIOyEEC1IIyEvEEDpOT_ @1063
    _ZNSt5tupleIIRKSsEEC1EOS2_ @1064
    _ZNSt5tupleIIRKSsEEC1ES1_ @1065
    _ZNSt5tupleIIRKyEEC1EOS2_ @1066
    _ZNSt5tupleIIRKyEEC1ES1_ @1067
    _ZNSt6chrono13duration_castINS_8durationIdSt5ratioILx1ELx1EEEExS2_ILx1ELx1000000000EEEENSt9enable_ifIXsrNS_13__is_durationIT_EE5valueES8_E4typeERKNS1_IT0_T1_EE @1068
    _ZNSt6chrono20__duration_cast_implINS_8durationIdSt5ratioILx1ELx1EEEES2_ILx1ELx1000000000EEdLb1ELb0EE6__castIxS5_EES4_RKNS1_IT_T0_EE @1069
    _ZNSt6chrono8durationIdSt5ratioILx1ELx1EEEC1IdvEERKT_ @1070
    _ZNSt6chrono8durationIdSt5ratioILx1ELx1EEEC1IxS1_ILx1ELx1000000000EEvEERKNS0_IT_T0_EE @1071
    _ZNSt6chrono8durationIxSt5ratioILx1ELx1000000000EEEC1IxvEERKT_ @1072
    _ZNSt6chronomiINS_3_V212system_clockENS_8durationIxSt5ratioILx1ELx1000000000EEEES6_EENSt11common_typeIIT0_T1_EE4typeERKNS_10time_pointIT_S8_EERKNSC_ISD_S9_EE @1073
    _ZNSt6chronomiIxSt5ratioILx1ELx1000000000EExS2_EENSt11common_typeIINS_8durationIT_T0_EENS4_IT1_T2_EEEE4typeERKS7_RKSA_ @1074
    _ZNSt6vectorIN3ocs6ObjectESaIS1_EE15_M_erase_at_endEPS1_ @1075
    _ZNSt6vectorIN3ocs6ObjectESaIS1_EE19_M_emplace_back_auxIIRKS1_EEEvDpOT_ @1076
    _ZNSt6vectorIN3ocs6ObjectESaIS1_EE20_M_allocate_and_copyIPS1_EES5_yT_S6_ @1077
    _ZNSt6vectorIN3ocs6ObjectESaIS1_EE3endEv @1078
    _ZNSt6vectorIN3ocs6ObjectESaIS1_EE5beginEv @1079
    _ZNSt6vectorIN3ocs6ObjectESaIS1_EE5clearEv @1080
    _ZNSt6vectorIN3ocs6ObjectESaIS1_EE7reserveEy @1081
    _ZNSt6vectorIN3ocs6ObjectESaIS1_EE8pop_backEv @1082
    _ZNSt6vectorIN3ocs6ObjectESaIS1_EE9push_backERKS1_ @1083
    _ZNSt6vectorIN3ocs6ObjectESaIS1_EEC1Ev @1084
    _ZNSt6vectorIN3ocs6ObjectESaIS1_EED1Ev @1085
    _ZNSt6vectorIN3ocs6ObjectESaIS1_EEixEy @1086
    _ZNSt6vectorIS_ISsSaISsEESaIS1_EE15_M_erase_at_endEPS1_ @1087
    _ZNSt6vectorIS_ISsSaISsEESaIS1_EE17_M_default_appendEy @1088
    _ZNSt6vectorIS_ISsSaISsEESaIS1_EE6resizeEy @1089
    _ZNSt6vectorIS_ISsSaISsEESaIS1_EEC1Ev @1090
    _ZNSt6vectorIS_ISsSaISsEESaIS1_EED1Ev @1091
    _ZNSt6vectorIS_ISsSaISsEESaIS1_EEixEy @1092
    _ZNSt6vectorIS_IbSaIbEESaIS1_EE15_M_erase_at_endEPS1_ @1093
    _ZNSt6vectorIS_IbSaIbEESaIS1_EE17_M_default_appendEy @1094
    _ZNSt6vectorIS_IbSaIbEESaIS1_EE6resizeEy @1095
    _ZNSt6vectorIS_IbSaIbEESaIS1_EEixEy @1096
    _ZNSt6vectorISsSaISsEE12emplace_backIISsEEEvDpOT_ @1097
    _ZNSt6vectorISsSaISsEE14_M_move_assignEOS1_St17integral_constantIbLb1EE @1098
    _ZNSt6vectorISsSaISsEE15_M_erase_at_endEPSs @1099
    _ZNSt6vectorISsSaISsEE19_M_emplace_back_auxIIRKSsEEEvDpOT_ @1100
    _ZNSt6vectorISsSaISsEE19_M_emplace_back_auxIISsEEEvDpOT_ @1101
    _ZNSt6vectorISsSaISsEE19_M_range_initializeIPKSsEEvT_S5_St20forward_iterator_tag @1102
    _ZNSt6vectorISsSaISsEE20_M_allocate_and_copyIN9__gnu_cxx17__normal_iteratorIPKSsS1_EEEEPSsyT_S9_ @1103
    _ZNSt6vectorISsSaISsEE3endEv @1104
    _ZNSt6vectorISsSaISsEE4backEv @1105
    _ZNSt6vectorISsSaISsEE5beginEv @1106
    _ZNSt6vectorISsSaISsEE5clearEv @1107
    _ZNSt6vectorISsSaISsEE5frontEv @1108
    _ZNSt6vectorISsSaISsEE8pop_backEv @1109
    _ZNSt6vectorISsSaISsEE9push_backEOSs @1110
    _ZNSt6vectorISsSaISsEE9push_backERKSs @1111
    _ZNSt6vectorISsSaISsEEC1EOS1_ @1112
    _ZNSt6vectorISsSaISsEEC1ESt16initializer_listISsERKS0_ @1113
    _ZNSt6vectorISsSaISsEEC1Ev @1114
    _ZNSt6vectorISsSaISsEED1Ev @1115
    _ZNSt6vectorISsSaISsEEaSEOS1_ @1116
    _ZNSt6vectorISsSaISsEEaSERKS1_ @1117
    _ZNSt6vectorISsSaISsEEixEy @1118
    _ZNSt6vectorISt10shared_ptrIN3ocs11BaseMessageEESaIS3_EE15_M_erase_at_endEPS3_ @1119
    _ZNSt6vectorISt10shared_ptrIN3ocs11BaseMessageEESaIS3_EE5clearEv @1120
    _ZNSt6vectorISt10shared_ptrIN3ocs11BaseMessageEESaIS3_EED1Ev @1121
    _ZNSt6vectorISt4pairIySsESaIS1_EE3endEv @1122
    _ZNSt6vectorISt4pairIySsESaIS1_EE5beginEv @1123
    _ZNSt6vectorISt4pairIySsESaIS1_EEC1ERKS3_ @1124
    _ZNSt6vectorISt4pairIySsESaIS1_EED1Ev @1125
    _ZNSt6vectorIbSaIbEE13_M_initializeEy @1126
    _ZNSt6vectorIbSaIbEE13_M_insert_auxESt13_Bit_iteratorb @1127
    _ZNSt6vectorIbSaIbEE15_M_copy_alignedESt19_Bit_const_iteratorS2_St13_Bit_iterator @1128
    _ZNSt6vectorIbSaIbEE3endEv @1129
    _ZNSt6vectorIbSaIbEE5beginEv @1130
    _ZNSt6vectorIbSaIbEE9push_backEb @1131
    _ZNSt6vectorIbSaIbEEC1EOS1_ @1132
    _ZNSt6vectorIbSaIbEEC1Ev @1133
    _ZNSt6vectorIbSaIbEED1Ev @1134
    _ZNSt6vectorIbSaIbEEaSERKS1_ @1135
    _ZNSt6vectorIiSaIiEE18_M_fill_initializeEyRKi @1136
    _ZNSt6vectorIiSaIiEEC1EyRKiRKS0_ @1137
    _ZNSt6vectorIiSaIiEED1Ev @1138
    _ZNSt6vectorIiSaIiEEixEy @1139
    _ZNSt6vectorIySaIyEE15_M_erase_at_endEPy @1140
    _ZNSt6vectorIySaIyEE19_M_emplace_back_auxIIRKyEEEvDpOT_ @1141
    _ZNSt6vectorIySaIyEE20_M_allocate_and_copyISt13move_iteratorIPyEEES4_yT_S6_ @1142
    _ZNSt6vectorIySaIyEE3endEv @1143
    _ZNSt6vectorIySaIyEE5beginEv @1144
    _ZNSt6vectorIySaIyEE5clearEv @1145
    _ZNSt6vectorIySaIyEE7reserveEy @1146
    _ZNSt6vectorIySaIyEE9push_backERKy @1147
    _ZNSt6vectorIySaIyEEC1Ev @1148
    _ZNSt6vectorIySaIyEED1Ev @1149
    _ZNSt6vectorIySaIyEEixEy @1150
    _ZNSt8_Rb_treeISsSsSt9_IdentityISsESt4lessISsESaISsEE10_M_insert_IRKSsEESt17_Rb_tree_iteratorISsEPSt18_Rb_tree_node_baseSC_OT_ @1151
    _ZNSt8_Rb_treeISsSsSt9_IdentityISsESt4lessISsESaISsEE11_M_get_nodeEv @1152
    _ZNSt8_Rb_treeISsSsSt9_IdentityISsESt4lessISsESaISsEE11_M_leftmostEv @1153
    _ZNSt8_Rb_treeISsSsSt9_IdentityISsESt4lessISsESaISsEE11_M_put_nodeEPSt13_Rb_tree_nodeISsE @1154
    _ZNSt8_Rb_treeISsSsSt9_IdentityISsESt4lessISsESaISsEE12_M_rightmostEv @1155
    _ZNSt8_Rb_treeISsSsSt9_IdentityISsESt4lessISsESaISsEE13_Rb_tree_implIS3_Lb1EE13_M_initializeEv @1156
    _ZNSt8_Rb_treeISsSsSt9_IdentityISsESt4lessISsESaISsEE13_Rb_tree_implIS3_Lb1EEC1ERKS3_OSaISt13_Rb_tree_nodeISsEE @1157
    _ZNSt8_Rb_treeISsSsSt9_IdentityISsESt4lessISsESaISsEE13_Rb_tree_implIS3_Lb1EED1Ev @1158
    _ZNSt8_Rb_treeISsSsSt9_IdentityISsESt4lessISsESaISsEE14_M_create_nodeIIRKSsEEEPSt13_Rb_tree_nodeISsEDpOT_ @1159
    _ZNSt8_Rb_treeISsSsSt9_IdentityISsESt4lessISsESaISsEE15_M_destroy_nodeEPSt13_Rb_tree_nodeISsE @1160
    _ZNSt8_Rb_treeISsSsSt9_IdentityISsESt4lessISsESaISsEE16_M_insert_uniqueIPKSsEEvT_S9_ @1161
    _ZNSt8_Rb_treeISsSsSt9_IdentityISsESt4lessISsESaISsEE17_M_insert_unique_IRKSsEESt17_Rb_tree_iteratorISsESt23_Rb_tree_const_iteratorISsEOT_ @1162
    _ZNSt8_Rb_treeISsSsSt9_IdentityISsESt4lessISsESaISsEE21_M_get_Node_allocatorEv @1163
    _ZNSt8_Rb_treeISsSsSt9_IdentityISsESt4lessISsESaISsEE24_M_get_insert_unique_posERKSs @1164
    _ZNSt8_Rb_treeISsSsSt9_IdentityISsESt4lessISsESaISsEE29_M_get_insert_hint_unique_posESt23_Rb_tree_const_iteratorISsERKSs @1165
    _ZNSt8_Rb_treeISsSsSt9_IdentityISsESt4lessISsESaISsEE3endEv @1166
    _ZNSt8_Rb_treeISsSsSt9_IdentityISsESt4lessISsESaISsEE5beginEv @1167
    _ZNSt8_Rb_treeISsSsSt9_IdentityISsESt4lessISsESaISsEE6_M_endEv @1168
    _ZNSt8_Rb_treeISsSsSt9_IdentityISsESt4lessISsESaISsEE6_S_keyEPKSt13_Rb_tree_nodeISsE @1169
    _ZNSt8_Rb_treeISsSsSt9_IdentityISsESt4lessISsESaISsEE6_S_keyEPKSt18_Rb_tree_node_base @1170
    _ZNSt8_Rb_treeISsSsSt9_IdentityISsESt4lessISsESaISsEE7_S_leftEPKSt18_Rb_tree_node_base @1171
    _ZNSt8_Rb_treeISsSsSt9_IdentityISsESt4lessISsESaISsEE7_S_leftEPSt18_Rb_tree_node_base @1172
    _ZNSt8_Rb_treeISsSsSt9_IdentityISsESt4lessISsESaISsEE8_M_beginEv @1173
    _ZNSt8_Rb_treeISsSsSt9_IdentityISsESt4lessISsESaISsEE8_M_eraseEPSt13_Rb_tree_nodeISsE @1174
    _ZNSt8_Rb_treeISsSsSt9_IdentityISsESt4lessISsESaISsEE8_S_rightEPKSt18_Rb_tree_node_base @1175
    _ZNSt8_Rb_treeISsSsSt9_IdentityISsESt4lessISsESaISsEE8_S_rightEPSt18_Rb_tree_node_base @1176
    _ZNSt8_Rb_treeISsSsSt9_IdentityISsESt4lessISsESaISsEE8_S_valueEPKSt13_Rb_tree_nodeISsE @1177
    _ZNSt8_Rb_treeISsSsSt9_IdentityISsESt4lessISsESaISsEE8_S_valueEPKSt18_Rb_tree_node_base @1178
    _ZNSt8_Rb_treeISsSsSt9_IdentityISsESt4lessISsESaISsEEC1ERKS3_RKS4_ @1179
    _ZNSt8_Rb_treeISsSsSt9_IdentityISsESt4lessISsESaISsEED1Ev @1180
    _ZNSt8__detail10_Hash_nodeISt4pairIKSsN3ocs6ObjectEELb1EEC1IIRKSt21piecewise_construct_tSt5tupleIIRS2_EESB_IIEEEEEDpOT_ @1181
    _ZNSt8__detail10_Hash_nodeISt4pairIKSsN3ocs6ObjectEELb1EED1Ev @1182
    _ZNSt8__detail10_Hash_nodeISt4pairIKSsyELb1EEC1IIRKSt21piecewise_construct_tSt5tupleIIRS2_EES9_IIEEEEEDpOT_ @1183
    _ZNSt8__detail10_Hash_nodeISt4pairIKSsyELb1EED1Ev @1184
    _ZNSt8__detail10_Hash_nodeISt4pairIKyP18BaseComponentArrayELb0EEC1IIRKS5_EEEDpOT_ @1185
    _ZNSt8__detail10_Hash_nodeISt4pairIKyP18BaseComponentArrayELb0EEC1IIRKSt21piecewise_construct_tSt5tupleIIRS2_EESB_IIEEEEEDpOT_ @1186
    _ZNSt8__detail10_Hash_nodeISt4pairIKySt13unordered_mapIySt6vectorISt10shared_ptrIN3ocs11BaseMessageEESaIS8_EESt4hashIyESt8equal_toIyESaIS1_IS2_SA_EEEELb0EEC1IIRKSt21piecewise_construct_tSt5tupleIIOyEESO_IIEEEEEDpOT_ @1187
    _ZNSt8__detail10_Hash_nodeISt4pairIKySt13unordered_mapIySt6vectorISt10shared_ptrIN3ocs11BaseMessageEESaIS8_EESt4hashIyESt8equal_toIyESaIS1_IS2_SA_EEEELb0EEC1IIRKSt21piecewise_construct_tSt5tupleIIRS2_EESO_IIEEEEEDpOT_ @1188
    _ZNSt8__detail10_Hash_nodeISt4pairIKySt13unordered_mapIySt6vectorISt10shared_ptrIN3ocs11BaseMessageEESaIS8_EESt4hashIyESt8equal_toIyESaIS1_IS2_SA_EEEELb0EED1Ev @1189
    _ZNSt8__detail10_Hash_nodeISt4pairIKySt6vectorISt10shared_ptrIN3ocs11BaseMessageEESaIS7_EEELb0EED1Ev @1190
    _ZNSt8__detail10_Hash_nodeISt4pairIKyyELb0EEC1IIRKS3_EEEDpOT_ @1191
    _ZNSt8__detail10_Hash_nodeISt4pairIKyyELb0EEC1IIRKSt21piecewise_construct_tSt5tupleIIRS2_EES9_IIEEEEEDpOT_ @1192
    _ZNSt8__detail12_Insert_baseISsSt4pairIKSsN3ocs6ObjectEESaIS5_ENS_10_Select1stESt8equal_toISsESt4hashISsENS_18_Mod_range_hashingENS_20_Default_ranged_hashENS_20_Prime_rehash_policyENS_17_Hashtable_traitsILb1ELb0ELb1EEEEC2Ev @1193
    _ZNSt8__detail12_Insert_baseISsSt4pairIKSsyESaIS3_ENS_10_Select1stESt8equal_toISsESt4hashISsENS_18_Mod_range_hashingENS_20_Default_ranged_hashENS_20_Prime_rehash_policyENS_17_Hashtable_traitsILb1ELb0ELb1EEEEC2Ev @1194
    _ZNSt8__detail12_Insert_baseIySt4pairIKyP18BaseComponentArrayESaIS5_ENS_10_Select1stESt8equal_toIyESt4hashIyENS_18_Mod_range_hashingENS_20_Default_ranged_hashENS_20_Prime_rehash_policyENS_17_Hashtable_traitsILb0ELb0ELb1EEEEC2Ev @1195
    _ZNSt8__detail12_Insert_baseIySt4pairIKySt13unordered_mapIySt6vectorISt10shared_ptrIN3ocs11BaseMessageEESaIS8_EESt4hashIyESt8equal_toIyESaIS1_IS2_SA_EEEESaISI_ENS_10_Select1stESE_SC_NS_18_Mod_range_hashingENS_20_Default_ranged_hashENS_20_Prime_rehash_policyENS_17_Hashtable_traitsILb0ELb0ELb1EEEEC2Ev @1196
    _ZNSt8__detail12_Insert_baseIySt4pairIKySt6vectorISt10shared_ptrIN3ocs11BaseMessageEESaIS7_EEESaISA_ENS_10_Select1stESt8equal_toIyESt4hashIyENS_18_Mod_range_hashingENS_20_Default_ranged_hashENS_20_Prime_rehash_policyENS_17_Hashtable_traitsILb0ELb0ELb1EEEEC2Ev @1197
    _ZNSt8__detail12_Insert_baseIySt4pairIKyyESaIS3_ENS_10_Select1stESt8equal_toIyESt4hashIyENS_18_Mod_range_hashingENS_20_Default_ranged_hashENS_20_Prime_rehash_policyENS_17_Hashtable_traitsILb0ELb0ELb1EEEEC2Ev @1198
    _ZNSt8__detail13_Before_beginISaINS_10_Hash_nodeISt4pairIKSsN3ocs6ObjectEELb1EEEEEC1IRKSaIS6_EEEOT_ @1199
    _ZNSt8__detail13_Before_beginISaINS_10_Hash_nodeISt4pairIKSsN3ocs6ObjectEELb1EEEEED1Ev @1200
    _ZNSt8__detail13_Before_beginISaINS_10_Hash_nodeISt4pairIKSsyELb1EEEEEC1IRKSaIS4_EEEOT_ @1201
    _ZNSt8__detail13_Before_beginISaINS_10_Hash_nodeISt4pairIKSsyELb1EEEEED1Ev @1202
    _ZNSt8__detail13_Before_beginISaINS_10_Hash_nodeISt4pairIKyP18BaseComponentArrayELb0EEEEEC1ERKS9_ @1203
    _ZNSt8__detail13_Before_beginISaINS_10_Hash_nodeISt4pairIKyP18BaseComponentArrayELb0EEEEEC1IRKSaIS6_EEEOT_ @1204
    _ZNSt8__detail13_Before_beginISaINS_10_Hash_nodeISt4pairIKyP18BaseComponentArrayELb0EEEEED1Ev @1205
    _ZNSt8__detail13_Before_beginISaINS_10_Hash_nodeISt4pairIKySt13unordered_mapIySt6vectorISt10shared_ptrIN3ocs11BaseMessageEESaIS9_EESt4hashIyESt8equal_toIyESaIS2_IS3_SB_EEEELb0EEEEEC1IRKSaISJ_EEEOT_ @1206
    _ZNSt8__detail13_Before_beginISaINS_10_Hash_nodeISt4pairIKySt13unordered_mapIySt6vectorISt10shared_ptrIN3ocs11BaseMessageEESaIS9_EESt4hashIyESt8equal_toIyESaIS2_IS3_SB_EEEELb0EEEEED1Ev @1207
    _ZNSt8__detail13_Before_beginISaINS_10_Hash_nodeISt4pairIKySt6vectorISt10shared_ptrIN3ocs11BaseMessageEESaIS8_EEELb0EEEEEC1IRKSaISB_EEEOT_ @1208
    _ZNSt8__detail13_Before_beginISaINS_10_Hash_nodeISt4pairIKySt6vectorISt10shared_ptrIN3ocs11BaseMessageEESaIS8_EEELb0EEEEED1Ev @1209
    _ZNSt8__detail13_Before_beginISaINS_10_Hash_nodeISt4pairIKyyELb0EEEEEC1ERKS7_ @1210
    _ZNSt8__detail13_Before_beginISaINS_10_Hash_nodeISt4pairIKyyELb0EEEEEC1IRKSaIS4_EEEOT_ @1211
    _ZNSt8__detail13_Before_beginISaINS_10_Hash_nodeISt4pairIKyyELb0EEEEED1Ev @1212
    _ZNSt8__detail13_Equal_helperISsSt4pairIKSsN3ocs6ObjectEENS_10_Select1stESt8equal_toISsEyLb1EE9_S_equalsERKS8_RKS6_RS2_yPNS_10_Hash_nodeIS5_Lb1EEE @1213
    _ZNSt8__detail13_Equal_helperISsSt4pairIKSsyENS_10_Select1stESt8equal_toISsEyLb1EE9_S_equalsERKS6_RKS4_RS2_yPNS_10_Hash_nodeIS3_Lb1EEE @1214
    _ZNSt8__detail13_Equal_helperIySt4pairIKyP18BaseComponentArrayENS_10_Select1stESt8equal_toIyEyLb0EE9_S_equalsERKS8_RKS6_RS2_yPNS_10_Hash_nodeIS5_Lb0EEE @1215
    _ZNSt8__detail13_Equal_helperIySt4pairIKySt13unordered_mapIySt6vectorISt10shared_ptrIN3ocs11BaseMessageEESaIS8_EESt4hashIyESt8equal_toIyESaIS1_IS2_SA_EEEENS_10_Select1stESE_yLb0EE9_S_equalsERKSE_RKSJ_RS2_yPNS_10_Hash_nodeISI_Lb0EEE @1216
    _ZNSt8__detail13_Equal_helperIySt4pairIKyyENS_10_Select1stESt8equal_toIyEyLb0EE9_S_equalsERKS6_RKS4_RS2_yPNS_10_Hash_nodeIS3_Lb0EEE @1217
    _ZNSt8__detail14_Node_iteratorISt4pairIKSsN3ocs6ObjectEELb0ELb1EEC1EPNS_10_Hash_nodeIS5_Lb1EEE @1218
    _ZNSt8__detail14_Node_iteratorISt4pairIKSsyELb0ELb1EEC1EPNS_10_Hash_nodeIS3_Lb1EEE @1219
    _ZNSt8__detail14_Node_iteratorISt4pairIKyP18BaseComponentArrayELb0ELb0EEC1EPNS_10_Hash_nodeIS5_Lb0EEE @1220
    _ZNSt8__detail14_Node_iteratorISt4pairIKyP18BaseComponentArrayELb0ELb0EEppEv @1221
    _ZNSt8__detail14_Node_iteratorISt4pairIKySt13unordered_mapIySt6vectorISt10shared_ptrIN3ocs11BaseMessageEESaIS8_EESt4hashIyESt8equal_toIyESaIS1_IS2_SA_EEEELb0ELb0EEC1EPNS_10_Hash_nodeISI_Lb0EEE @1222
    _ZNSt8__detail14_Node_iteratorISt4pairIKySt6vectorISt10shared_ptrIN3ocs11BaseMessageEESaIS7_EEELb0ELb0EEC1EPNS_10_Hash_nodeISA_Lb0EEE @1223
    _ZNSt8__detail14_Node_iteratorISt4pairIKySt6vectorISt10shared_ptrIN3ocs11BaseMessageEESaIS7_EEELb0ELb0EEppEv @1224
    _ZNSt8__detail14_Node_iteratorISt4pairIKyyELb0ELb0EEC1EPNS_10_Hash_nodeIS3_Lb0EEE @1225
    _ZNSt8__detail15_Hash_code_baseISsSt4pairIKSsN3ocs6ObjectEENS_10_Select1stESt4hashISsENS_18_Mod_range_hashingENS_20_Default_ranged_hashELb1EE10_M_extractEv @1226
    _ZNSt8__detail15_Hash_code_baseISsSt4pairIKSsN3ocs6ObjectEENS_10_Select1stESt4hashISsENS_18_Mod_range_hashingENS_20_Default_ranged_hashELb1EEC2ERKS6_RKS8_RKS9_RKSA_ @1227
    _ZNSt8__detail15_Hash_code_baseISsSt4pairIKSsyENS_10_Select1stESt4hashISsENS_18_Mod_range_hashingENS_20_Default_ranged_hashELb1EE10_M_extractEv @1228
    _ZNSt8__detail15_Hash_code_baseISsSt4pairIKSsyENS_10_Select1stESt4hashISsENS_18_Mod_range_hashingENS_20_Default_ranged_hashELb1EEC2ERKS4_RKS6_RKS7_RKS8_ @1229
    _ZNSt8__detail15_Hash_code_baseIySt4pairIKyP18BaseComponentArrayENS_10_Select1stESt4hashIyENS_18_Mod_range_hashingENS_20_Default_ranged_hashELb0EE10_M_extractEv @1230
    _ZNSt8__detail15_Hash_code_baseIySt4pairIKyP18BaseComponentArrayENS_10_Select1stESt4hashIyENS_18_Mod_range_hashingENS_20_Default_ranged_hashELb0EE5_M_h1Ev @1231
    _ZNSt8__detail15_Hash_code_baseIySt4pairIKyP18BaseComponentArrayENS_10_Select1stESt4hashIyENS_18_Mod_range_hashingENS_20_Default_ranged_hashELb0EE5_M_h2Ev @1232
    _ZNSt8__detail15_Hash_code_baseIySt4pairIKyP18BaseComponentArrayENS_10_Select1stESt4hashIyENS_18_Mod_range_hashingENS_20_Default_ranged_hashELb0EE7_M_swapERSB_ @1233
    _ZNSt8__detail15_Hash_code_baseIySt4pairIKyP18BaseComponentArrayENS_10_Select1stESt4hashIyENS_18_Mod_range_hashingENS_20_Default_ranged_hashELb0EEC2ERKS6_RKS8_RKS9_RKSA_ @1234
    _ZNSt8__detail15_Hash_code_baseIySt4pairIKySt13unordered_mapIySt6vectorISt10shared_ptrIN3ocs11BaseMessageEESaIS8_EESt4hashIyESt8equal_toIyESaIS1_IS2_SA_EEEENS_10_Select1stESC_NS_18_Mod_range_hashingENS_20_Default_ranged_hashELb0EE10_M_extractEv @1235
    _ZNSt8__detail15_Hash_code_baseIySt4pairIKySt13unordered_mapIySt6vectorISt10shared_ptrIN3ocs11BaseMessageEESaIS8_EESt4hashIyESt8equal_toIyESaIS1_IS2_SA_EEEENS_10_Select1stESC_NS_18_Mod_range_hashingENS_20_Default_ranged_hashELb0EEC2ERKSJ_RKSC_RKSK_RKSL_ @1236
    _ZNSt8__detail15_Hash_code_baseIySt4pairIKySt6vectorISt10shared_ptrIN3ocs11BaseMessageEESaIS7_EEENS_10_Select1stESt4hashIyENS_18_Mod_range_hashingENS_20_Default_ranged_hashELb0EEC2ERKSB_RKSD_RKSE_RKSF_ @1237
    _ZNSt8__detail15_Hash_code_baseIySt4pairIKyyENS_10_Select1stESt4hashIyENS_18_Mod_range_hashingENS_20_Default_ranged_hashELb0EE10_M_extractEv @1238
    _ZNSt8__detail15_Hash_code_baseIySt4pairIKyyENS_10_Select1stESt4hashIyENS_18_Mod_range_hashingENS_20_Default_ranged_hashELb0EE5_M_h1Ev @1239
    _ZNSt8__detail15_Hash_code_baseIySt4pairIKyyENS_10_Select1stESt4hashIyENS_18_Mod_range_hashingENS_20_Default_ranged_hashELb0EE5_M_h2Ev @1240
    _ZNSt8__detail15_Hash_code_baseIySt4pairIKyyENS_10_Select1stESt4hashIyENS_18_Mod_range_hashingENS_20_Default_ranged_hashELb0EE7_M_swapERS9_ @1241
    _ZNSt8__detail15_Hash_code_baseIySt4pairIKyyENS_10_Select1stESt4hashIyENS_18_Mod_range_hashingENS_20_Default_ranged_hashELb0EEC2ERKS4_RKS6_RKS7_RKS8_ @1242
    _ZNSt8__detail15_Hash_node_baseC1Ev @1243
    _ZNSt8__detail15_Hash_node_baseC2Ev @1244
    _ZNSt8__detail15_Hashtable_baseISsSt4pairIKSsN3ocs6ObjectEENS_10_Select1stESt8equal_toISsESt4hashISsENS_18_Mod_range_hashingENS_20_Default_ranged_hashENS_17_Hashtable_traitsILb1ELb0ELb1EEEEC2ERKS6_RKSA_RKSB_RKSC_RKS8_ @1245
    _ZNSt8__detail15_Hashtable_baseISsSt4pairIKSsyENS_10_Select1stESt8equal_toISsESt4hashISsENS_18_Mod_range_hashingENS_20_Default_ranged_hashENS_17_Hashtable_traitsILb1ELb0ELb1EEEEC2ERKS4_RKS8_RKS9_RKSA_RKS6_ @1246
    _ZNSt8__detail15_Hashtable_baseIySt4pairIKyP18BaseComponentArrayENS_10_Select1stESt8equal_toIyESt4hashIyENS_18_Mod_range_hashingENS_20_Default_ranged_hashENS_17_Hashtable_traitsILb0ELb0ELb1EEEE5_M_eqEv @1247
    _ZNSt8__detail15_Hashtable_baseIySt4pairIKyP18BaseComponentArrayENS_10_Select1stESt8equal_toIyESt4hashIyENS_18_Mod_range_hashingENS_20_Default_ranged_hashENS_17_Hashtable_traitsILb0ELb0ELb1EEEE7_M_swapERSF_ @1248
    _ZNSt8__detail15_Hashtable_baseIySt4pairIKyP18BaseComponentArrayENS_10_Select1stESt8equal_toIyESt4hashIyENS_18_Mod_range_hashingENS_20_Default_ranged_hashENS_17_Hashtable_traitsILb0ELb0ELb1EEEEC2ERKS6_RKSA_RKSB_RKSC_RKS8_ @1249
    _ZNSt8__detail15_Hashtable_baseIySt4pairIKySt13unordered_mapIySt6vectorISt10shared_ptrIN3ocs11BaseMessageEESaIS8_EESt4hashIyESt8equal_toIyESaIS1_IS2_SA_EEEENS_10_Select1stESE_SC_NS_18_Mod_range_hashingENS_20_Default_ranged_hashENS_17_Hashtable_traitsILb0ELb0ELb1EEEEC2ERKSJ_RKSC_RKSK_RKSL_RKSE_ @1250
    _ZNSt8__detail15_Hashtable_baseIySt4pairIKySt6vectorISt10shared_ptrIN3ocs11BaseMessageEESaIS7_EEENS_10_Select1stESt8equal_toIyESt4hashIyENS_18_Mod_range_hashingENS_20_Default_ranged_hashENS_17_Hashtable_traitsILb0ELb0ELb1EEEEC2ERKSB_RKSF_RKSG_RKSH_RKSD_ @1251
    _ZNSt8__detail15_Hashtable_baseIySt4pairIKyyENS_10_Select1stESt8equal_toIyESt4hashIyENS_18_Mod_range_hashingENS_20_Default_ranged_hashENS_17_Hashtable_traitsILb0ELb0ELb1EEEE5_M_eqEv @1252
    _ZNSt8__detail15_Hashtable_baseIySt4pairIKyyENS_10_Select1stESt8equal_toIyESt4hashIyENS_18_Mod_range_hashingENS_20_Default_ranged_hashENS_17_Hashtable_traitsILb0ELb0ELb1EEEE7_M_swapERSD_ @1253
    _ZNSt8__detail15_Hashtable_baseIySt4pairIKyyENS_10_Select1stESt8equal_toIyESt4hashIyENS_18_Mod_range_hashingENS_20_Default_ranged_hashENS_17_Hashtable_traitsILb0ELb0ELb1EEEEC2ERKS4_RKS8_RKS9_RKSA_RKS6_ @1254
    _ZNSt8__detail19_Node_iterator_baseISt4pairIKSsN3ocs6ObjectEELb1EEC2EPNS_10_Hash_nodeIS5_Lb1EEE @1255
    _ZNSt8__detail19_Node_iterator_baseISt4pairIKSsyELb1EEC2EPNS_10_Hash_nodeIS3_Lb1EEE @1256
    _ZNSt8__detail19_Node_iterator_baseISt4pairIKyP18BaseComponentArrayELb0EE7_M_incrEv @1257
    _ZNSt8__detail19_Node_iterator_baseISt4pairIKyP18BaseComponentArrayELb0EEC2EPNS_10_Hash_nodeIS5_Lb0EEE @1258
    _ZNSt8__detail19_Node_iterator_baseISt4pairIKySt13unordered_mapIySt6vectorISt10shared_ptrIN3ocs11BaseMessageEESaIS8_EESt4hashIyESt8equal_toIyESaIS1_IS2_SA_EEEELb0EEC2EPNS_10_Hash_nodeISI_Lb0EEE @1259
    _ZNSt8__detail19_Node_iterator_baseISt4pairIKySt6vectorISt10shared_ptrIN3ocs11BaseMessageEESaIS7_EEELb0EE7_M_incrEv @1260
    _ZNSt8__detail19_Node_iterator_baseISt4pairIKySt6vectorISt10shared_ptrIN3ocs11BaseMessageEESaIS7_EEELb0EEC2EPNS_10_Hash_nodeISA_Lb0EEE @1261
    _ZNSt8__detail19_Node_iterator_baseISt4pairIKyyELb0EE7_M_incrEv @1262
    _ZNSt8__detail19_Node_iterator_baseISt4pairIKyyELb0EEC2EPNS_10_Hash_nodeIS3_Lb0EEE @1263
    _ZNSt8__detail20_Node_const_iteratorISt4pairIKSsN3ocs6ObjectEELb0ELb1EEC1EPNS_10_Hash_nodeIS5_Lb1EEE @1264
    _ZNSt8__detail20_Node_const_iteratorISt4pairIKySt6vectorISt10shared_ptrIN3ocs11BaseMessageEESaIS7_EEELb0ELb0EEC1EPNS_10_Hash_nodeISA_Lb0EEE @1265
    _ZNSt8__detail20_Node_const_iteratorISt4pairIKySt6vectorISt10shared_ptrIN3ocs11BaseMessageEESaIS7_EEELb0ELb0EEppEv @1266
    _ZNSt8__detail20_Node_const_iteratorISt4pairIKyyELb0ELb0EEC1EPNS_10_Hash_nodeIS3_Lb0EEE @1267
    _ZNSt8__detail20_Node_const_iteratorISt4pairIKyyELb0ELb0EEppEv @1268
    _ZNSt8__detail20_Prime_rehash_policy8_M_resetEy @1269
    _ZNSt8__detail20_Prime_rehash_policyC1Ef @1270
    _ZNSt8__detail21_Hashtable_ebo_helperILi0ENS_10_Select1stELb1EE6_S_getERS2_ @1271
    _ZNSt8__detail21_Hashtable_ebo_helperILi0ENS_10_Select1stELb1EE7_S_cgetERKS2_ @1272
    _ZNSt8__detail21_Hashtable_ebo_helperILi0ENS_10_Select1stELb1EEC2ERKS1_ @1273
    _ZNSt8__detail21_Hashtable_ebo_helperILi0ESt8equal_toISsELb1EE7_S_cgetERKS3_ @1274
    _ZNSt8__detail21_Hashtable_ebo_helperILi0ESt8equal_toISsELb1EEC2ERKS2_ @1275
    _ZNSt8__detail21_Hashtable_ebo_helperILi0ESt8equal_toIyELb1EE6_S_getERS3_ @1276
    _ZNSt8__detail21_Hashtable_ebo_helperILi0ESt8equal_toIyELb1EE7_S_cgetERKS3_ @1277
    _ZNSt8__detail21_Hashtable_ebo_helperILi0ESt8equal_toIyELb1EEC2ERKS2_ @1278
    _ZNSt8__detail21_Hashtable_ebo_helperILi1ESt4hashISsELb1EE7_S_cgetERKS3_ @1279
    _ZNSt8__detail21_Hashtable_ebo_helperILi1ESt4hashISsELb1EEC2ERKS2_ @1280
    _ZNSt8__detail21_Hashtable_ebo_helperILi1ESt4hashIyELb1EE6_S_getERS3_ @1281
    _ZNSt8__detail21_Hashtable_ebo_helperILi1ESt4hashIyELb1EE7_S_cgetERKS3_ @1282
    _ZNSt8__detail21_Hashtable_ebo_helperILi1ESt4hashIyELb1EEC2ERKS2_ @1283
    _ZNSt8__detail21_Hashtable_ebo_helperILi2ENS_18_Mod_range_hashingELb1EE6_S_getERS2_ @1284
    _ZNSt8__detail21_Hashtable_ebo_helperILi2ENS_18_Mod_range_hashingELb1EE7_S_cgetERKS2_ @1285
    _ZNSt8__detail21_Hashtable_ebo_helperILi2ENS_18_Mod_range_hashingELb1EEC2ERKS1_ @1286
    _ZNSt8__detail7_InsertISsSt4pairIKSsN3ocs6ObjectEESaIS5_ENS_10_Select1stESt8equal_toISsESt4hashISsENS_18_Mod_range_hashingENS_20_Default_ranged_hashENS_20_Prime_rehash_policyENS_17_Hashtable_traitsILb1ELb0ELb1EEELb0ELb1EEC2Ev @1287
    _ZNSt8__detail7_InsertISsSt4pairIKSsyESaIS3_ENS_10_Select1stESt8equal_toISsESt4hashISsENS_18_Mod_range_hashingENS_20_Default_ranged_hashENS_20_Prime_rehash_policyENS_17_Hashtable_traitsILb1ELb0ELb1EEELb0ELb1EEC2Ev @1288
    _ZNSt8__detail7_InsertIySt4pairIKyP18BaseComponentArrayESaIS5_ENS_10_Select1stESt8equal_toIyESt4hashIyENS_18_Mod_range_hashingENS_20_Default_ranged_hashENS_20_Prime_rehash_policyENS_17_Hashtable_traitsILb0ELb0ELb1EEELb0ELb1EEC2Ev @1289
    _ZNSt8__detail7_InsertIySt4pairIKySt13unordered_mapIySt6vectorISt10shared_ptrIN3ocs11BaseMessageEESaIS8_EESt4hashIyESt8equal_toIyESaIS1_IS2_SA_EEEESaISI_ENS_10_Select1stESE_SC_NS_18_Mod_range_hashingENS_20_Default_ranged_hashENS_20_Prime_rehash_policyENS_17_Hashtable_traitsILb0ELb0ELb1EEELb0ELb1EEC2Ev @1290
    _ZNSt8__detail7_InsertIySt4pairIKySt6vectorISt10shared_ptrIN3ocs11BaseMessageEESaIS7_EEESaISA_ENS_10_Select1stESt8equal_toIyESt4hashIyENS_18_Mod_range_hashingENS_20_Default_ranged_hashENS_20_Prime_rehash_policyENS_17_Hashtable_traitsILb0ELb0ELb1EEELb0ELb1EEC2Ev @1291
    _ZNSt8__detail7_InsertIySt4pairIKyyESaIS3_ENS_10_Select1stESt8equal_toIyESt4hashIyENS_18_Mod_range_hashingENS_20_Default_ranged_hashENS_20_Prime_rehash_policyENS_17_Hashtable_traitsILb0ELb0ELb1EEELb0ELb1EEC2Ev @1292
    _ZNSt8__detail9_EqualityISsSt4pairIKSsN3ocs6ObjectEESaIS5_ENS_10_Select1stESt8equal_toISsESt4hashISsENS_18_Mod_range_hashingENS_20_Default_ranged_hashENS_20_Prime_rehash_policyENS_17_Hashtable_traitsILb1ELb0ELb1EEELb1EEC2Ev @1293
    _ZNSt8__detail9_EqualityISsSt4pairIKSsyESaIS3_ENS_10_Select1stESt8equal_toISsESt4hashISsENS_18_Mod_range_hashingENS_20_Default_ranged_hashENS_20_Prime_rehash_policyENS_17_Hashtable_traitsILb1ELb0ELb1EEELb1EEC2Ev @1294
    _ZNSt8__detail9_EqualityIySt4pairIKyP18BaseComponentArrayESaIS5_ENS_10_Select1stESt8equal_toIyESt4hashIyENS_18_Mod_range_hashingENS_20_Default_ranged_hashENS_20_Prime_rehash_policyENS_17_Hashtable_traitsILb0ELb0ELb1EEELb1EEC2Ev @1295
    _ZNSt8__detail9_EqualityIySt4pairIKySt13unordered_mapIySt6vectorISt10shared_ptrIN3ocs11BaseMessageEESaIS8_EESt4hashIyESt8equal_toIyESaIS1_IS2_SA_EEEESaISI_ENS_10_Select1stESE_SC_NS_18_Mod_range_hashingENS_20_Default_ranged_hashENS_20_Prime_rehash_policyENS_17_Hashtable_traitsILb0ELb0ELb1EEELb1EEC2Ev @1296
    _ZNSt8__detail9_EqualityIySt4pairIKySt6vectorISt10shared_ptrIN3ocs11BaseMessageEESaIS7_EEESaISA_ENS_10_Select1stESt8equal_toIyESt4hashIyENS_18_Mod_range_hashingENS_20_Default_ranged_hashENS_20_Prime_rehash_policyENS_17_Hashtable_traitsILb0ELb0ELb1EEELb1EEC2Ev @1297
    _ZNSt8__detail9_EqualityIySt4pairIKyyESaIS3_ENS_10_Select1stESt8equal_toIyESt4hashIyENS_18_Mod_range_hashingENS_20_Default_ranged_hashENS_20_Prime_rehash_policyENS_17_Hashtable_traitsILb0ELb0ELb1EEELb1EEC2Ev @1298
    _ZNSt8__detail9_Map_baseISsSt4pairIKSsN3ocs6ObjectEESaIS5_ENS_10_Select1stESt8equal_toISsESt4hashISsENS_18_Mod_range_hashingENS_20_Default_ranged_hashENS_20_Prime_rehash_policyENS_17_Hashtable_traitsILb1ELb0ELb1EEELb1EEixERS2_ @1299
    _ZNSt8__detail9_Map_baseISsSt4pairIKSsyESaIS3_ENS_10_Select1stESt8equal_toISsESt4hashISsENS_18_Mod_range_hashingENS_20_Default_ranged_hashENS_20_Prime_rehash_policyENS_17_Hashtable_traitsILb1ELb0ELb1EEELb1EEixERS2_ @1300
    _ZNSt8__detail9_Map_baseIySt4pairIKyP18BaseComponentArrayESaIS5_ENS_10_Select1stESt8equal_toIyESt4hashIyENS_18_Mod_range_hashingENS_20_Default_ranged_hashENS_20_Prime_rehash_policyENS_17_Hashtable_traitsILb0ELb0ELb1EEELb1EE2atERS2_ @1301
    _ZNSt8__detail9_Map_baseIySt4pairIKyP18BaseComponentArrayESaIS5_ENS_10_Select1stESt8equal_toIyESt4hashIyENS_18_Mod_range_hashingENS_20_Default_ranged_hashENS_20_Prime_rehash_policyENS_17_Hashtable_traitsILb0ELb0ELb1EEELb1EEixERS2_ @1302
    _ZNSt8__detail9_Map_baseIySt4pairIKySt13unordered_mapIySt6vectorISt10shared_ptrIN3ocs11BaseMessageEESaIS8_EESt4hashIyESt8equal_toIyESaIS1_IS2_SA_EEEESaISI_ENS_10_Select1stESE_SC_NS_18_Mod_range_hashingENS_20_Default_ranged_hashENS_20_Prime_rehash_policyENS_17_Hashtable_traitsILb0ELb0ELb1EEELb1EEixEOy @1303
    _ZNSt8__detail9_Map_baseIySt4pairIKySt13unordered_mapIySt6vectorISt10shared_ptrIN3ocs11BaseMessageEESaIS8_EESt4hashIyESt8equal_toIyESaIS1_IS2_SA_EEEESaISI_ENS_10_Select1stESE_SC_NS_18_Mod_range_hashingENS_20_Default_ranged_hashENS_20_Prime_rehash_policyENS_17_Hashtable_traitsILb0ELb0ELb1EEELb1EEixERS2_ @1304
    _ZNSt8__detail9_Map_baseIySt4pairIKyyESaIS3_ENS_10_Select1stESt8equal_toIyESt4hashIyENS_18_Mod_range_hashingENS_20_Default_ranged_hashENS_20_Prime_rehash_policyENS_17_Hashtable_traitsILb0ELb0ELb1EEELb1EE2atERS2_ @1305
    _ZNSt8__detail9_Map_baseIySt4pairIKyyESaIS3_ENS_10_Select1stESt8equal_toIyESt4hashIyENS_18_Mod_range_hashingENS_20_Default_ranged_hashENS_20_Prime_rehash_policyENS_17_Hashtable_traitsILb0ELb0ELb1EEELb1EEixERS2_ @1306
    _ZNSt8__detaileqISt4pairIKyP18BaseComponentArrayELb0EEEbRKNS_19_Node_iterator_baseIT_XT0_EEESA_ @1307
    _ZNSt8__detailneISt4pairIKSsN3ocs6ObjectEELb1EEEbRKNS_19_Node_iterator_baseIT_XT0_EEESA_ @1308
    _ZNSt8__detailneISt4pairIKSsyELb1EEEbRKNS_19_Node_iterator_baseIT_XT0_EEES8_ @1309
    _ZNSt8__detailneISt4pairIKyP18BaseComponentArrayELb0EEEbRKNS_19_Node_iterator_baseIT_XT0_EEESA_ @1310
    _ZNSt8__detailneISt4pairIKySt6vectorISt10shared_ptrIN3ocs11BaseMessageEESaIS7_EEELb0EEEbRKNS_19_Node_iterator_baseIT_XT0_EEESF_ @1311
    _ZNSt8__detailneISt4pairIKyyELb0EEEbRKNS_19_Node_iterator_baseIT_XT0_EEES8_ @1312
    _ZNSt8iteratorISt26random_access_iterator_tagbxPbRbEC2Ev @1313
    _ZSt10_ConstructIN3ocs6ObjectEIRS1_EEvPT_DpOT0_ @1314
    _ZSt10_ConstructISsIRKSsEEvPT_DpOT0_ @1315
    _ZSt10_ConstructISsIRSsEEvPT_DpOT0_ @1316
    _ZSt10_ConstructISsISsEEvPT_DpOT0_ @1317
    _ZSt10_ConstructISt4pairIySsEIRKS1_EEvPT_DpOT0_ @1318
    _ZSt10_ConstructISt6vectorISsSaISsEEIEEvPT_DpOT0_ @1319
    _ZSt10_ConstructISt6vectorISsSaISsEEIS2_EEvPT_DpOT0_ @1320
    _ZSt10_ConstructISt6vectorIbSaIbEEIEEvPT_DpOT0_ @1321
    _ZSt10_ConstructISt6vectorIbSaIbEEIS2_EEvPT_DpOT0_ @1322
    _ZSt10__distanceIPKSsENSt15iterator_traitsIT_E15difference_typeES3_S3_St26random_access_iterator_tag @1323
    _ZSt10__distanceISt20_List_const_iteratorISt10shared_ptrIN3ocs6SystemEEEENSt15iterator_traitsIT_E15difference_typeES7_S7_St18input_iterator_tag @1324
    _ZSt10__fill_n_aIPiyiEN9__gnu_cxx11__enable_ifIXsrSt11__is_scalarIT1_E7__valueET_E6__typeES6_T0_RKS4_ @1325
    _ZSt11__addressofIN3ocs6ObjectEEPT_RS2_ @1326
    _ZSt11__addressofISsEPT_RS0_ @1327
    _ZSt11__addressofISt10shared_ptrIN3ocs11BaseMessageEEEPT_RS4_ @1328
    _ZSt11__addressofISt4pairIKSsN3ocs6ObjectEEEPT_RS5_ @1329
    _ZSt11__addressofISt4pairIKSsyEEPT_RS3_ @1330
    _ZSt11__addressofISt4pairIKyP18BaseComponentArrayEEPT_RS5_ @1331
    _ZSt11__addressofISt4pairIKySt13unordered_mapIySt6vectorISt10shared_ptrIN3ocs11BaseMessageEESaIS7_EESt4hashIyESt8equal_toIyESaIS0_IS1_S9_EEEEEPT_RSI_ @1332
    _ZSt11__addressofISt4pairIKyyEEPT_RS3_ @1333
    _ZSt11__addressofISt4pairIySsEEPT_RS2_ @1334
    _ZSt11__addressofISt6vectorISsSaISsEEEPT_RS3_ @1335
    _ZSt11__addressofISt6vectorIbSaIbEEEPT_RS3_ @1336
    _ZSt12__get_helperILy0EOyIEENSt9__add_refIT0_E4typeERSt11_Tuple_implIXT_EIS2_DpT1_EE @1337
    _ZSt12__get_helperILy0ERKSsIEENSt9__add_refIT0_E4typeERSt11_Tuple_implIXT_EIS3_DpT1_EE @1338
    _ZSt12__get_helperILy0ERKyIEENSt9__add_refIT0_E4typeERSt11_Tuple_implIXT_EIS3_DpT1_EE @1339
    _ZSt12__miter_baseIN9__gnu_cxx17__normal_iteratorIPKSsSt6vectorISsSaISsEEEEENSt11_Miter_baseIT_E13iterator_typeES9_ @1340
    _ZSt12__miter_baseIPPyENSt11_Miter_baseIT_E13iterator_typeES3_ @1341
    _ZSt12__miter_baseIPSsENSt11_Miter_baseIT_E13iterator_typeES2_ @1342
    _ZSt12__miter_baseIPmENSt11_Miter_baseIT_E13iterator_typeES2_ @1343
    _ZSt12__miter_baseISt13_Bit_iteratorENSt11_Miter_baseIT_E13iterator_typeES2_ @1344
    _ZSt12__miter_baseISt13move_iteratorIPyEENSt11_Miter_baseIT_E13iterator_typeES4_ @1345
    _ZSt12__miter_baseISt19_Bit_const_iteratorENSt11_Miter_baseIT_E13iterator_typeES2_ @1346
    _ZSt12__niter_baseIN9__gnu_cxx17__normal_iteratorIPKSsSt6vectorISsSaISsEEEEENSt11_Niter_baseIT_E13iterator_typeES9_ @1347
    _ZSt12__niter_baseIN9__gnu_cxx17__normal_iteratorIPSsSt6vectorISsSaISsEEEEENSt11_Niter_baseIT_E13iterator_typeES8_ @1348
    _ZSt12__niter_baseIPPyENSt11_Niter_baseIT_E13iterator_typeES3_ @1349
    _ZSt12__niter_baseIPSsENSt11_Niter_baseIT_E13iterator_typeES2_ @1350
    _ZSt12__niter_baseIPiENSt11_Niter_baseIT_E13iterator_typeES2_ @1351
    _ZSt12__niter_baseIPmENSt11_Niter_baseIT_E13iterator_typeES2_ @1352
    _ZSt12__niter_baseIPyENSt11_Niter_baseIT_E13iterator_typeES2_ @1353
    _ZSt12__niter_baseISt13_Bit_iteratorENSt11_Niter_baseIT_E13iterator_typeES2_ @1354
    _ZSt12__niter_baseISt19_Bit_const_iteratorENSt11_Niter_baseIT_E13iterator_typeES2_ @1355
    _ZSt13__copy_move_aILb0EPKSsPSsET1_T0_S4_S3_ @1356
    _ZSt13__copy_move_aILb0EPPyS1_ET1_T0_S3_S2_ @1357
    _ZSt13__copy_move_aILb0EPSsS0_ET1_T0_S2_S1_ @1358
    _ZSt13__copy_move_aILb0EPmS0_ET1_T0_S2_S1_ @1359
    _ZSt13__copy_move_aILb0ESt13_Bit_iteratorS0_ET1_T0_S2_S1_ @1360
    _ZSt13__copy_move_aILb0ESt19_Bit_const_iteratorSt13_Bit_iteratorET1_T0_S3_S2_ @1361
    _ZSt13__copy_move_aILb1EPyS0_ET1_T0_S2_S1_ @1362
    _ZSt13copy_backwardIPPyS1_ET0_T_S3_S2_ @1363
    _ZSt13copy_backwardISt13_Bit_iteratorS0_ET0_T_S2_S1_ @1364
    _ZSt14__copy_move_a2ILb0EN9__gnu_cxx17__normal_iteratorIPKSsSt6vectorISsSaISsEEEENS1_IPSsS6_EEET1_T0_SB_SA_ @1365
    _ZSt14__copy_move_a2ILb0EPPyS1_ET1_T0_S3_S2_ @1366
    _ZSt14__copy_move_a2ILb0EPSsS0_ET1_T0_S2_S1_ @1367
    _ZSt14__copy_move_a2ILb0EPmS0_ET1_T0_S2_S1_ @1368
    _ZSt14__copy_move_a2ILb0ESt13_Bit_iteratorS0_ET1_T0_S2_S1_ @1369
    _ZSt14__copy_move_a2ILb0ESt19_Bit_const_iteratorSt13_Bit_iteratorET1_T0_S3_S2_ @1370
    _ZSt14__copy_move_a2ILb1EPyS0_ET1_T0_S2_S1_ @1371
    _ZSt15__alloc_on_copyISaISsEEvRT_RKS1_ @1372
    _ZSt15__alloc_on_moveISaISsEEvRT_S2_ @1373
    _ZSt16__deque_buf_sizey @1374
    _ZSt16forward_as_tupleIIyEESt5tupleIIDpOT_EES3_ @1375
    _ZSt18__do_alloc_on_copyISaISsEEvRT_RKS1_St17integral_constantIbLb0EE @1376
    _ZSt18__do_alloc_on_moveISaISsEEvRT_S2_St17integral_constantIbLb1EE @1377
    _ZSt18uninitialized_copyIN9__gnu_cxx17__normal_iteratorIPKSsSt6vectorISsSaISsEEEEPSsET0_T_SA_S9_ @1378
    _ZSt18uninitialized_copyIN9__gnu_cxx17__normal_iteratorIPKSt4pairIySsESt6vectorIS3_SaIS3_EEEEPS3_ET0_T_SC_SB_ @1379
    _ZSt18uninitialized_copyIPKSsPSsET0_T_S4_S3_ @1380
    _ZSt18uninitialized_copyIPN3ocs6ObjectES2_ET0_T_S4_S3_ @1381
    _ZSt18uninitialized_copyIPSsS0_ET0_T_S2_S1_ @1382
    _ZSt18uninitialized_copyISt13move_iteratorIPSsES1_ET0_T_S4_S3_ @1383
    _ZSt18uninitialized_copyISt13move_iteratorIPSt6vectorISsSaISsEEES4_ET0_T_S7_S6_ @1384
    _ZSt18uninitialized_copyISt13move_iteratorIPSt6vectorIbSaIbEEES4_ET0_T_S7_S6_ @1385
    _ZSt18uninitialized_copyISt13move_iteratorIPyES1_ET0_T_S4_S3_ @1386
    _ZSt19__iterator_categoryIPKSsENSt15iterator_traitsIT_E17iterator_categoryERKS3_ @1387
    _ZSt19__iterator_categoryISt20_List_const_iteratorISt10shared_ptrIN3ocs6SystemEEEENSt15iterator_traitsIT_E17iterator_categoryERKS7_ @1388
    _ZSt20uninitialized_fill_nIPiyiEvT_T0_RKT1_ @1389
    _ZSt22__copy_move_backward_aILb0EPPyS1_ET1_T0_S3_S2_ @1390
    _ZSt22__copy_move_backward_aILb0ESt13_Bit_iteratorS0_ET1_T0_S2_S1_ @1391
    _ZSt22__uninitialized_copy_aIN9__gnu_cxx17__normal_iteratorIPKSsSt6vectorISsSaISsEEEEPSsSsET0_T_SA_S9_RSaIT1_E @1392
    _ZSt22__uninitialized_copy_aIN9__gnu_cxx17__normal_iteratorIPKSt4pairIySsESt6vectorIS3_SaIS3_EEEEPS3_S3_ET0_T_SC_SB_RSaIT1_E @1393
    _ZSt22__uninitialized_copy_aIPKSsPSsSsET0_T_S4_S3_RSaIT1_E @1394
    _ZSt22__uninitialized_copy_aIPN3ocs6ObjectES2_S1_ET0_T_S4_S3_RSaIT1_E @1395
    _ZSt22__uninitialized_copy_aIPSsS0_SsET0_T_S2_S1_RSaIT1_E @1396
    _ZSt22__uninitialized_copy_aISt13move_iteratorIPSsES1_SsET0_T_S4_S3_RSaIT1_E @1397
    _ZSt22__uninitialized_copy_aISt13move_iteratorIPSt6vectorISsSaISsEEES4_S3_ET0_T_S7_S6_RSaIT1_E @1398
    _ZSt22__uninitialized_copy_aISt13move_iteratorIPSt6vectorIbSaIbEEES4_S3_ET0_T_S7_S6_RSaIT1_E @1399
    _ZSt22__uninitialized_copy_aISt13move_iteratorIPyES1_yET0_T_S4_S3_RSaIT1_E @1400
    _ZSt23__copy_move_backward_a2ILb0EPPyS1_ET1_T0_S3_S2_ @1401
    _ZSt23__copy_move_backward_a2ILb0ESt13_Bit_iteratorS0_ET1_T0_S2_S1_ @1402
    _ZSt24__uninitialized_fill_n_aIPiyiiEvT_T0_RKT1_RSaIT2_E @1403
    _ZSt25__uninitialized_default_nIPSt6vectorISsSaISsEEyEvT_T0_ @1404
    _ZSt25__uninitialized_default_nIPSt6vectorIbSaIbEEyEvT_T0_ @1405
    _ZSt27__uninitialized_default_n_aIPSt6vectorISsSaISsEEyS2_EvT_T0_RSaIT1_E @1406
    _ZSt27__uninitialized_default_n_aIPSt6vectorIbSaIbEEyS2_EvT_T0_RSaIT1_E @1407
    _ZSt32__make_move_if_noexcept_iteratorIPN3ocs6ObjectES2_ET0_T_ @1408
    _ZSt32__make_move_if_noexcept_iteratorIPSsSt13move_iteratorIS0_EET0_T_ @1409
    _ZSt32__make_move_if_noexcept_iteratorIPSt6vectorISsSaISsEESt13move_iteratorIS3_EET0_T_ @1410
    _ZSt32__make_move_if_noexcept_iteratorIPSt6vectorIbSaIbEESt13move_iteratorIS3_EET0_T_ @1411
    _ZSt32__make_move_if_noexcept_iteratorIPySt13move_iteratorIS0_EET0_T_ @1412
    _ZSt34__uninitialized_move_if_noexcept_aIPN3ocs6ObjectES2_SaIS1_EET0_T_S5_S4_RT1_ @1413
    _ZSt34__uninitialized_move_if_noexcept_aIPSsS0_SaISsEET0_T_S3_S2_RT1_ @1414
    _ZSt34__uninitialized_move_if_noexcept_aIPSt6vectorISsSaISsEES3_SaIS2_EET0_T_S6_S5_RT1_ @1415
    _ZSt34__uninitialized_move_if_noexcept_aIPSt6vectorIbSaIbEES3_SaIS2_EET0_T_S6_S5_RT1_ @1416
    _ZSt34__uninitialized_move_if_noexcept_aIPyS0_SaIyEET0_T_S3_S2_RT1_ @1417
    _ZSt3getILy0EIOyEENSt9__add_refINSt13tuple_elementIXT_ESt5tupleIIDpT0_EEE4typeEE4typeERS6_ @1418
    _ZSt3getILy0EIRKSsEENSt9__add_refINSt13tuple_elementIXT_ESt5tupleIIDpT0_EEE4typeEE4typeERS7_ @1419
    _ZSt3getILy0EIRKyEENSt9__add_refINSt13tuple_elementIXT_ESt5tupleIIDpT0_EEE4typeEE4typeERS7_ @1420
    _ZSt3getILy0EKSsN3ocs6ObjectEERNSt13tuple_elementIXT_ESt4pairIT0_T1_EE4typeERS7_ @1421
    _ZSt3getILy0EKSsyERNSt13tuple_elementIXT_ESt4pairIT0_T1_EE4typeERS5_ @1422
    _ZSt3getILy0EKyP18BaseComponentArrayERKNSt13tuple_elementIXT_ESt4pairIT0_T1_EE4typeERKS7_ @1423
    _ZSt3getILy0EKyP18BaseComponentArrayERNSt13tuple_elementIXT_ESt4pairIT0_T1_EE4typeERS7_ @1424
    _ZSt3getILy0EKySt13unordered_mapIySt6vectorISt10shared_ptrIN3ocs11BaseMessageEESaIS6_EESt4hashIyESt8equal_toIyESaISt4pairIS0_S8_EEEERKNSt13tuple_elementIXT_ESD_IT0_T1_EE4typeERKSK_ @1425
    _ZSt3getILy0EKySt13unordered_mapIySt6vectorISt10shared_ptrIN3ocs11BaseMessageEESaIS6_EESt4hashIyESt8equal_toIyESaISt4pairIS0_S8_EEEERNSt13tuple_elementIXT_ESD_IT0_T1_EE4typeERSK_ @1426
    _ZSt3getILy0EKyyERKNSt13tuple_elementIXT_ESt4pairIT0_T1_EE4typeERKS5_ @1427
    _ZSt3getILy0EKyyERNSt13tuple_elementIXT_ESt4pairIT0_T1_EE4typeERS5_ @1428
    _ZSt3maxIyERKT_S2_S2_ @1429
    _ZSt4copyIN9__gnu_cxx17__normal_iteratorIPKSsSt6vectorISsSaISsEEEENS1_IPSsS6_EEET0_T_SB_SA_ @1430
    _ZSt4copyIPPyS1_ET0_T_S3_S2_ @1431
    _ZSt4copyIPSsS0_ET0_T_S2_S1_ @1432
    _ZSt4copyIPmS0_ET0_T_S2_S1_ @1433
    _ZSt4copyISt13_Bit_iteratorS0_ET0_T_S2_S1_ @1434
    _ZSt4copyISt13move_iteratorIPyES1_ET0_T_S4_S3_ @1435
    _ZSt4copyISt19_Bit_const_iteratorSt13_Bit_iteratorET0_T_S3_S2_ @1436
    _ZSt4moveIRNSt8__detail10_Select1stEEONSt16remove_referenceIT_E4typeEOS4_ @1437
    _ZSt4moveIRNSt8__detail18_Mod_range_hashingEEONSt16remove_referenceIT_E4typeEOS4_ @1438
    _ZSt4moveIRNSt8__detail20_Prime_rehash_policyEEONSt16remove_referenceIT_E4typeEOS4_ @1439
    _ZSt4moveIRPNSt8__detail15_Hash_node_baseEEONSt16remove_referenceIT_E4typeEOS5_ @1440
    _ZSt4moveIRPPNSt8__detail15_Hash_node_baseEEONSt16remove_referenceIT_E4typeEOS6_ @1441
    _ZSt4moveIRPPyEONSt16remove_referenceIT_E4typeEOS4_ @1442
    _ZSt4moveIRPSsEONSt16remove_referenceIT_E4typeEOS3_ @1443
    _ZSt4moveIRSaISsEEONSt16remove_referenceIT_E4typeEOS3_ @1444
    _ZSt4moveIRSaISt13_Rb_tree_nodeISsEEEONSt16remove_referenceIT_E4typeEOS5_ @1445
    _ZSt4moveIRSaImEEONSt16remove_referenceIT_E4typeEOS3_ @1446
    _ZSt4moveIRSaIyEEONSt16remove_referenceIT_E4typeEOS3_ @1447
    _ZSt4moveIRSsEONSt16remove_referenceIT_E4typeEOS2_ @1448
    _ZSt4moveIRSt11_Tuple_implILy1EIEEEONSt16remove_referenceIT_E4typeEOS4_ @1449
    _ZSt4moveIRSt15_Deque_iteratorIyRyPyEEONSt16remove_referenceIT_E4typeEOS6_ @1450
    _ZSt4moveIRSt4hashIyEEONSt16remove_referenceIT_E4typeEOS4_ @1451
    _ZSt4moveIRSt5dequeIySaIyEEEONSt16remove_referenceIT_E4typeEOS5_ @1452
    _ZSt4moveIRSt6vectorISsSaISsEEEONSt16remove_referenceIT_E4typeEOS5_ @1453
    _ZSt4moveIRSt6vectorIbSaIbEEEONSt16remove_referenceIT_E4typeEOS5_ @1454
    _ZSt4moveIRSt8equal_toIyEEONSt16remove_referenceIT_E4typeEOS4_ @1455
    _ZSt4moveIRyEONSt16remove_referenceIT_E4typeEOS2_ @1456
    _ZSt4swapINSt8__detail10_Select1stEEvRT_S3_ @1457
    _ZSt4swapINSt8__detail18_Mod_range_hashingEEvRT_S3_ @1458
    _ZSt4swapINSt8__detail20_Prime_rehash_policyEEvRT_S3_ @1459
    _ZSt4swapIPNSt8__detail15_Hash_node_baseEEvRT_S4_ @1460
    _ZSt4swapIPPNSt8__detail15_Hash_node_baseEEvRT_S5_ @1461
    _ZSt4swapIPPyEvRT_S3_ @1462
    _ZSt4swapIPSsEvRT_S2_ @1463
    _ZSt4swapISt15_Deque_iteratorIyRyPyEEvRT_S5_ @1464
    _ZSt4swapISt4hashIyEEvRT_S3_ @1465
    _ZSt4swapISt8equal_toIyEEvRT_S3_ @1466
    _ZSt4swapIcSt11char_traitsIcESaIcEEvRSbIT_T0_T1_ES7_ @1467
    _ZSt4swapIyEvRT_S1_ @1468
    _ZSt6fill_nIPiyiET_S1_T0_RKT1_ @1469
    _ZSt7forwardIOyEOT_RNSt16remove_referenceIS1_E4typeE @1470
    _ZSt7forwardIRKN3ocs6ObjectEEOT_RNSt16remove_referenceIS4_E4typeE @1471
    _ZSt7forwardIRKSaISt4pairIKSsN3ocs6ObjectEEEEOT_RNSt16remove_referenceIS8_E4typeE @1472
    _ZSt7forwardIRKSaISt4pairIKSsyEEEOT_RNSt16remove_referenceIS6_E4typeE @1473
    _ZSt7forwardIRKSaISt4pairIKyP18BaseComponentArrayEEEOT_RNSt16remove_referenceIS8_E4typeE @1474
    _ZSt7forwardIRKSaISt4pairIKySt13unordered_mapIySt6vectorISt10shared_ptrIN3ocs11BaseMessageEESaIS7_EESt4hashIyESt8equal_toIyESaIS0_IS1_S9_EEEEEEOT_RNSt16remove_referenceISL_E4typeE @1475
    _ZSt7forwardIRKSaISt4pairIKySt6vectorISt10shared_ptrIN3ocs11BaseMessageEESaIS6_EEEEEOT_RNSt16remove_referenceISD_E4typeE @1476
    _ZSt7forwardIRKSaISt4pairIKyyEEEOT_RNSt16remove_referenceIS6_E4typeE @1477
    _ZSt7forwardIRKSsEOT_RNSt16remove_referenceIS2_E4typeE @1478
    _ZSt7forwardIRKSt21piecewise_construct_tEOT_RNSt16remove_referenceIS3_E4typeE @1479
    _ZSt7forwardIRKSt4pairIKyP18BaseComponentArrayEEOT_RNSt16remove_referenceIS7_E4typeE @1480
    _ZSt7forwardIRKSt4pairIKySt13unordered_mapIySt6vectorISt10shared_ptrIN3ocs11BaseMessageEESaIS7_EESt4hashIyESt8equal_toIyESaIS0_IS1_S9_EEEEEOT_RNSt16remove_referenceISK_E4typeE @1481
    _ZSt7forwardIRKSt4pairIKyyEEOT_RNSt16remove_referenceIS5_E4typeE @1482
    _ZSt7forwardIRKSt4pairIySsEEOT_RNSt16remove_referenceIS4_E4typeE @1483
    _ZSt7forwardIRKyEOT_RNSt16remove_referenceIS2_E4typeE @1484
    _ZSt7forwardIRN3ocs6ObjectEEOT_RNSt16remove_referenceIS3_E4typeE @1485
    _ZSt7forwardIRPSt13_Rb_tree_nodeISsEEOT_RNSt16remove_referenceIS4_E4typeE @1486
    _ZSt7forwardIRPSt18_Rb_tree_node_baseEOT_RNSt16remove_referenceIS3_E4typeE @1487
    _ZSt7forwardIRSsEOT_RNSt16remove_referenceIS1_E4typeE @1488
    _ZSt7forwardIRSt4pairIKSsN3ocs6ObjectEEEOT_RNSt16remove_referenceIS6_E4typeE @1489
    _ZSt7forwardIRSt4pairIKSsyEEOT_RNSt16remove_referenceIS4_E4typeE @1490
    _ZSt7forwardIRSt4pairIKyP18BaseComponentArrayEEOT_RNSt16remove_referenceIS6_E4typeE @1491
    _ZSt7forwardIRSt4pairIKySt13unordered_mapIySt6vectorISt10shared_ptrIN3ocs11BaseMessageEESaIS7_EESt4hashIyESt8equal_toIyESaIS0_IS1_S9_EEEEEOT_RNSt16remove_referenceISJ_E4typeE @1492
    _ZSt7forwardIRSt4pairIKyyEEOT_RNSt16remove_referenceIS4_E4typeE @1493
    _ZSt7forwardISsEOT_RNSt16remove_referenceIS0_E4typeE @1494
    _ZSt7forwardISt5tupleIIEEEOT_RNSt16remove_referenceIS2_E4typeE @1495
    _ZSt7forwardISt5tupleIIOyEEEOT_RNSt16remove_referenceIS3_E4typeE @1496
    _ZSt7forwardISt5tupleIIRKSsEEEOT_RNSt16remove_referenceIS4_E4typeE @1497
    _ZSt7forwardISt5tupleIIRKyEEEOT_RNSt16remove_referenceIS4_E4typeE @1498
    _ZSt7forwardISt6vectorISsSaISsEEEOT_RNSt16remove_referenceIS3_E4typeE @1499
    _ZSt7forwardISt6vectorIbSaIbEEEOT_RNSt16remove_referenceIS3_E4typeE @1500
    _ZSt7forwardIyEOT_RNSt16remove_referenceIS0_E4typeE @1501
    _ZSt8_DestroyIN3ocs6ObjectEEvPT_ @1502
    _ZSt8_DestroyIN9__gnu_cxx17__normal_iteratorIPSsSt6vectorISsSaISsEEEEEvT_S7_ @1503
    _ZSt8_DestroyIN9__gnu_cxx17__normal_iteratorIPSsSt6vectorISsSaISsEEEESsEvT_S7_RSaIT0_E @1504
    _ZSt8_DestroyIPN3ocs6ObjectEEvT_S3_ @1505
    _ZSt8_DestroyIPN3ocs6ObjectES1_EvT_S3_RSaIT0_E @1506
    _ZSt8_DestroyIPSsEvT_S1_ @1507
    _ZSt8_DestroyIPSsSsEvT_S1_RSaIT0_E @1508
    _ZSt8_DestroyIPSt10shared_ptrIN3ocs11BaseMessageEEEvT_S5_ @1509
    _ZSt8_DestroyIPSt10shared_ptrIN3ocs11BaseMessageEES3_EvT_S5_RSaIT0_E @1510
    _ZSt8_DestroyIPSt4pairIySsEEvT_S3_ @1511
    _ZSt8_DestroyIPSt4pairIySsES1_EvT_S3_RSaIT0_E @1512
    _ZSt8_DestroyIPSt6vectorISsSaISsEEEvT_S4_ @1513
    _ZSt8_DestroyIPSt6vectorISsSaISsEES2_EvT_S4_RSaIT0_E @1514
    _ZSt8_DestroyIPSt6vectorIbSaIbEEEvT_S4_ @1515
    _ZSt8_DestroyIPSt6vectorIbSaIbEES2_EvT_S4_RSaIT0_E @1516
    _ZSt8_DestroyIPiEvT_S1_ @1517
    _ZSt8_DestroyIPiiEvT_S1_RSaIT0_E @1518
    _ZSt8_DestroyIPyEvT_S1_ @1519
    _ZSt8_DestroyIPyyEvT_S1_RSaIT0_E @1520
    _ZSt8_DestroyISsEvPT_ @1521
    _ZSt8_DestroyISt10shared_ptrIN3ocs11BaseMessageEEEvPT_ @1522
    _ZSt8_DestroyISt4pairIySsEEvPT_ @1523
    _ZSt8_DestroyISt6vectorISsSaISsEEEvPT_ @1524
    _ZSt8_DestroyISt6vectorIbSaIbEEEvPT_ @1525
    _ZSt8distanceIPKSsENSt15iterator_traitsIT_E15difference_typeES3_S3_ @1526
    _ZSt8distanceISt20_List_const_iteratorISt10shared_ptrIN3ocs6SystemEEEENSt15iterator_traitsIT_E15difference_typeES7_S7_ @1527
    _ZSteqIPSsEbRKSt13move_iteratorIT_ES5_ @1528
    _ZSteqIPSt6vectorISsSaISsEEEbRKSt13move_iteratorIT_ES8_ @1529
    _ZSteqIPSt6vectorIbSaIbEEEbRKSt13move_iteratorIT_ES8_ @1530
    _ZSteqIcEN9__gnu_cxx11__enable_ifIXsrSt9__is_charIT_E7__valueEbE6__typeERKSbIS3_St11char_traitsIS3_ESaIS3_EESC_ @1531
    _ZSteqIcSt11char_traitsIcESaIcEEbRKSbIT_T0_T1_EPKS3_ @1532
    _ZSteqIyRyPyEbRKSt15_Deque_iteratorIT_T0_T1_ES8_ @1533
    _ZStltIcSt11char_traitsIcESaIcEEbRKSbIT_T0_T1_ES8_ @1534
    _ZStmiIyRyPyENSt15_Deque_iteratorIT_T0_T1_E15difference_typeERKS6_S9_ @1535
    _ZStmiRKSt18_Bit_iterator_baseS1_ @1536
    _ZStneIPSsEbRKSt13move_iteratorIT_ES5_ @1537
    _ZStneIPSt6vectorISsSaISsEEEbRKSt13move_iteratorIT_ES8_ @1538
    _ZStneIPSt6vectorIbSaIbEEEbRKSt13move_iteratorIT_ES8_ @1539
    _ZStneISsEbRKSaIT_ES3_ @1540
    _ZStneIcSt11char_traitsIcESaIcEEbRKSbIT_T0_T1_EPKS3_ @1541
    _ZStneIcSt11char_traitsIcESaIcEEbRKSbIT_T0_T1_ES8_ @1542
    _ZStorSt13_Ios_OpenmodeS_ @1543
    _ZStplIcSt11char_traitsIcESaIcEESbIT_T0_T1_EOS6_PKS3_ @1544
    _ZStplIcSt11char_traitsIcESaIcEESbIT_T0_T1_EOS6_RKS6_ @1545
    _ZStplIcSt11char_traitsIcESaIcEESbIT_T0_T1_EPKS3_OS6_ @1546
    _ZStplIcSt11char_traitsIcESaIcEESbIT_T0_T1_EPKS3_RKS6_ @1547
    _ZStplIcSt11char_traitsIcESaIcEESbIT_T0_T1_ERKS6_PKS3_ @1548
    _ZStplIcSt11char_traitsIcESaIcEESbIT_T0_T1_ES3_RKS6_ @1549
    _ZTI11PackedArrayIN3ocs6ObjectEE @1550 DATA
    _ZTI15BasePackedArray @1551 DATA
    _ZTIN3ocs11BaseMessageE @1552 DATA
    _ZTIN3ocs11TransceiverE @1553 DATA
    _ZTIN3ocs5StateE @1554 DATA
    _ZTISt11logic_error @1555 DATA
    _ZTISt12out_of_range @1556 DATA
    _ZTISt16invalid_argument @1557 DATA
    _ZTISt9exception @1558 DATA
    _ZTS11PackedArrayIN3ocs6ObjectEE @1559 DATA
    _ZTS15BasePackedArray @1560 DATA
    _ZTSN3ocs11BaseMessageE @1561 DATA
    _ZTSN3ocs11TransceiverE @1562 DATA
    _ZTSN3ocs5StateE @1563 DATA
    _ZTSSt11logic_error @1564 DATA
    _ZTSSt12out_of_range @1565 DATA
    _ZTSSt16invalid_argument @1566 DATA
    _ZTSSt9exception @1567 DATA
    _ZTV11PackedArrayIN3ocs6ObjectEE @1568 DATA
    _ZTV15BasePackedArray @1569 DATA
    _ZTVN3ocs11BaseMessageE @1570 DATA
    _ZTVN3ocs5StateE @1571 DATA
    _ZdlPvS_ @1572
    _ZlsRSt18basic_stringstreamIcSt11char_traitsIcESaIcEERSs @1573
    _ZnwyPv @1574
    _ZrsRSt18basic_stringstreamIcSt11char_traitsIcESaIcEERSs @1575
